Component: Arm Compiler for Embedded 6.19 Tool: armlink [5e73cb00]

==============================================================================

Section Cross References

    startup_stm32f407xx.o(RESET) refers to startup_stm32f407xx.o(STACK) for __initial_sp
    startup_stm32f407xx.o(RESET) refers to startup_stm32f407xx.o(.text) for Reset_Handler
    startup_stm32f407xx.o(RESET) refers to lto-llvm-af9222.o(.text.NMI_Handler) for NMI_Handler
    startup_stm32f407xx.o(RESET) refers to lto-llvm-af9222.o(.text.HardFault_Handler) for HardFault_Handler
    startup_stm32f407xx.o(RESET) refers to lto-llvm-af9222.o(.text.MemManage_Handler) for MemManage_Handler
    startup_stm32f407xx.o(RESET) refers to lto-llvm-af9222.o(.text.BusFault_Handler) for BusFault_Handler
    startup_stm32f407xx.o(RESET) refers to lto-llvm-af9222.o(.text.UsageFault_Handler) for UsageFault_Handler
    startup_stm32f407xx.o(RESET) refers to lto-llvm-af9222.o(.text.SVC_Handler) for SVC_Handler
    startup_stm32f407xx.o(RESET) refers to lto-llvm-af9222.o(.text.DebugMon_Handler) for DebugMon_Handler
    startup_stm32f407xx.o(RESET) refers to lto-llvm-af9222.o(.text.PendSV_Handler) for PendSV_Handler
    startup_stm32f407xx.o(RESET) refers to lto-llvm-af9222.o(.text.SysTick_Handler) for SysTick_Handler
    startup_stm32f407xx.o(RESET) refers to lto-llvm-af9222.o(.text.EXTI0_IRQHandler) for EXTI0_IRQHandler
    startup_stm32f407xx.o(RESET) refers to lto-llvm-af9222.o(.text.EXTI3_IRQHandler) for EXTI3_IRQHandler
    startup_stm32f407xx.o(RESET) refers to lto-llvm-af9222.o(.text.DMA1_Stream1_IRQHandler) for DMA1_Stream1_IRQHandler
    startup_stm32f407xx.o(RESET) refers to lto-llvm-af9222.o(.text.CAN1_RX0_IRQHandler) for CAN1_RX0_IRQHandler
    startup_stm32f407xx.o(RESET) refers to lto-llvm-af9222.o(.text.TIM1_UP_TIM10_IRQHandler) for TIM1_UP_TIM10_IRQHandler
    startup_stm32f407xx.o(RESET) refers to lto-llvm-af9222.o(.text.USART1_IRQHandler) for USART1_IRQHandler
    startup_stm32f407xx.o(RESET) refers to lto-llvm-af9222.o(.text.USART3_IRQHandler) for USART3_IRQHandler
    startup_stm32f407xx.o(RESET) refers to lto-llvm-af9222.o(.text.DMA2_Stream2_IRQHandler) for DMA2_Stream2_IRQHandler
    startup_stm32f407xx.o(RESET) refers to lto-llvm-af9222.o(.text.CAN2_RX0_IRQHandler) for CAN2_RX0_IRQHandler
    startup_stm32f407xx.o(RESET) refers to lto-llvm-af9222.o(.text.OTG_FS_IRQHandler) for OTG_FS_IRQHandler
    startup_stm32f407xx.o(RESET) refers to lto-llvm-af9222.o(.text.DMA2_Stream7_IRQHandler) for DMA2_Stream7_IRQHandler
    startup_stm32f407xx.o(RESET) refers to lto-llvm-af9222.o(.text.USART6_IRQHandler) for USART6_IRQHandler
    startup_stm32f407xx.o(.text) refers to lto-llvm-af9222.o(.text.SystemInit) for SystemInit
    startup_stm32f407xx.o(.text) refers to entry.o(.ARM.Collect$$$$00000000) for __main
    cxa_virtual.cpp.o(.text.__cxa_pure_virtual) refers to abort_message.cpp.o(.text.abort_message) for abort_message
    cxa_virtual.cpp.o(.ARM.exidx.text.__cxa_pure_virtual) refers to cxa_virtual.cpp.o(.text.__cxa_pure_virtual) for [Anonymous Symbol]
    cxa_virtual.cpp.o(.text.__cxa_deleted_virtual) refers to abort_message.cpp.o(.text.abort_message) for abort_message
    cxa_virtual.cpp.o(.ARM.exidx.text.__cxa_deleted_virtual) refers to cxa_virtual.cpp.o(.text.__cxa_deleted_virtual) for [Anonymous Symbol]
    log2.o(i.__hardfp_log2) refers (Special) to iusefp.o(.text) for __I$use$fp
    log2.o(i.__hardfp_log2) refers to cdcmple.o(.text) for __aeabi_cdcmpeq
    log2.o(i.__hardfp_log2) refers to dunder.o(i.__mathlib_dbl_infnan) for __mathlib_dbl_infnan
    log2.o(i.__hardfp_log2) refers to errno.o(i.__set_errno) for __set_errno
    log2.o(i.__hardfp_log2) refers to dunder.o(i.__mathlib_dbl_invalid) for __mathlib_dbl_invalid
    log2.o(i.__hardfp_log2) refers to frexp.o(i.frexp) for frexp
    log2.o(i.__hardfp_log2) refers to dmul.o(.text) for __aeabi_dmul
    log2.o(i.__hardfp_log2) refers to log.o(i.log) for log
    log2.o(i.__hardfp_log2) refers to ddiv.o(.text) for __aeabi_ddiv
    log2.o(i.__hardfp_log2) refers to dflti.o(.text) for __aeabi_i2d
    log2.o(i.__hardfp_log2) refers to dadd.o(.text) for __aeabi_dadd
    log2.o(i.log2) refers (Special) to iusefp.o(.text) for __I$use$fp
    log2.o(i.log2) refers to cdcmple.o(.text) for __aeabi_cdcmpeq
    log2.o(i.log2) refers to dunder.o(i.__mathlib_dbl_infnan) for __mathlib_dbl_infnan
    log2.o(i.log2) refers to errno.o(i.__set_errno) for __set_errno
    log2.o(i.log2) refers to dunder.o(i.__mathlib_dbl_invalid) for __mathlib_dbl_invalid
    log2.o(i.log2) refers to frexp.o(i.frexp) for frexp
    log2.o(i.log2) refers to dmul.o(.text) for __aeabi_dmul
    log2.o(i.log2) refers to log.o(i.log) for log
    log2.o(i.log2) refers to ddiv.o(.text) for __aeabi_ddiv
    log2.o(i.log2) refers to dflti.o(.text) for __aeabi_i2d
    log2.o(i.log2) refers to dadd.o(.text) for __aeabi_dadd
    entry.o(.ARM.Collect$$$$00000000) refers (Special) to entry10a.o(.ARM.Collect$$$$0000000D) for __rt_final_cpp
    entry.o(.ARM.Collect$$$$00000000) refers (Special) to entry11a.o(.ARM.Collect$$$$0000000F) for __rt_final_exit
    entry.o(.ARM.Collect$$$$00000000) refers (Special) to entry7b.o(.ARM.Collect$$$$00000008) for _main_clock
    entry.o(.ARM.Collect$$$$00000000) refers (Special) to entry8b.o(.ARM.Collect$$$$0000000A) for _main_cpp_init
    entry.o(.ARM.Collect$$$$00000000) refers (Special) to entry9a.o(.ARM.Collect$$$$0000000B) for _main_init
    entry.o(.ARM.Collect$$$$00000000) refers (Special) to entry5.o(.ARM.Collect$$$$00000004) for _main_scatterload
    entry.o(.ARM.Collect$$$$00000000) refers (Special) to entry2.o(.ARM.Collect$$$$00000001) for _main_stk
    printfa.o(i.__0fprintf) refers (Special) to iusefp.o(.text) for __I$use$fp
    printfa.o(i.__0fprintf) refers to printfa.o(i._printf_core) for _printf_core
    printfa.o(i.__0fprintf) refers to fputc.o(i.fputc) for fputc
    printfa.o(i.__0printf) refers (Special) to iusefp.o(.text) for __I$use$fp
    printfa.o(i.__0printf) refers to printfa.o(i._printf_core) for _printf_core
    printfa.o(i.__0printf) refers to fputc.o(i.fputc) for fputc
    printfa.o(i.__0printf) refers to stdout.o(.data) for __stdout
    printfa.o(i.__0snprintf) refers (Special) to iusefp.o(.text) for __I$use$fp
    printfa.o(i.__0snprintf) refers to printfa.o(i._printf_core) for _printf_core
    printfa.o(i.__0snprintf) refers to printfa.o(i._snputc) for _snputc
    printfa.o(i.__0sprintf) refers (Special) to iusefp.o(.text) for __I$use$fp
    printfa.o(i.__0sprintf) refers to printfa.o(i._printf_core) for _printf_core
    printfa.o(i.__0sprintf) refers to printfa.o(i._sputc) for _sputc
    printfa.o(i.__0vfprintf) refers (Special) to iusefp.o(.text) for __I$use$fp
    printfa.o(i.__0vfprintf) refers to printfa.o(i._printf_core) for _printf_core
    printfa.o(i.__0vfprintf) refers to fputc.o(i.fputc) for fputc
    printfa.o(i.__0vprintf) refers (Special) to iusefp.o(.text) for __I$use$fp
    printfa.o(i.__0vprintf) refers to printfa.o(i._printf_core) for _printf_core
    printfa.o(i.__0vprintf) refers to fputc.o(i.fputc) for fputc
    printfa.o(i.__0vprintf) refers to stdout.o(.data) for __stdout
    printfa.o(i.__0vsnprintf) refers (Special) to iusefp.o(.text) for __I$use$fp
    printfa.o(i.__0vsnprintf) refers to printfa.o(i._printf_core) for _printf_core
    printfa.o(i.__0vsnprintf) refers to printfa.o(i._snputc) for _snputc
    printfa.o(i.__0vsprintf) refers (Special) to iusefp.o(.text) for __I$use$fp
    printfa.o(i.__0vsprintf) refers to printfa.o(i._printf_core) for _printf_core
    printfa.o(i.__0vsprintf) refers to printfa.o(i._sputc) for _sputc
    printfa.o(i._fp_digits) refers (Special) to iusefp.o(.text) for __I$use$fp
    printfa.o(i._fp_digits) refers to dmul.o(.text) for __aeabi_dmul
    printfa.o(i._fp_digits) refers to ddiv.o(.text) for __aeabi_ddiv
    printfa.o(i._fp_digits) refers to cdrcmple.o(.text) for __aeabi_cdrcmple
    printfa.o(i._fp_digits) refers to dadd.o(.text) for __aeabi_dadd
    printfa.o(i._fp_digits) refers to dfixul.o(.text) for __aeabi_d2ulz
    printfa.o(i._fp_digits) refers to uldiv.o(.text) for __aeabi_uldivmod
    printfa.o(i._printf_core) refers (Special) to iusefp.o(.text) for __I$use$fp
    printfa.o(i._printf_core) refers to printfa.o(i._printf_pre_padding) for _printf_pre_padding
    printfa.o(i._printf_core) refers to uldiv.o(.text) for __aeabi_uldivmod
    printfa.o(i._printf_core) refers to printfa.o(i._printf_post_padding) for _printf_post_padding
    printfa.o(i._printf_core) refers to printfa.o(i._fp_digits) for _fp_digits
    printfa.o(i._printf_core) refers to uidiv.o(.text) for __aeabi_uidivmod
    printfa.o(i._printf_post_padding) refers (Special) to iusefp.o(.text) for __I$use$fp
    printfa.o(i._printf_pre_padding) refers (Special) to iusefp.o(.text) for __I$use$fp
    printfa.o(i._snputc) refers (Special) to iusefp.o(.text) for __I$use$fp
    printfa.o(i._sputc) refers (Special) to iusefp.o(.text) for __I$use$fp
    malloc.o(i.free) refers to mvars.o(.data) for __microlib_freelist
    malloc.o(i.malloc) refers to mvars.o(.data) for __microlib_freelist_initialised
    malloc.o(i.malloc) refers to mvars.o(.data) for __microlib_freelist
    malloc.o(i.malloc) refers to startup_stm32f407xx.o(HEAP) for __heap_base
    mallocr.o(i.__free$realloc) refers to mvars.o(.data) for __microlib_freelist
    mallocr.o(i.__malloc$realloc) refers to mallocr.o(i.internal_alloc) for internal_alloc
    mallocr.o(i.__malloc$realloc) refers to mvars.o(.data) for __microlib_freelist_initialised
    mallocr.o(i.__malloc$realloc) refers to startup_stm32f407xx.o(HEAP) for __heap_base
    mallocr.o(i.__malloc$realloc) refers to mvars.o(.data) for __microlib_freelist
    mallocr.o(i.internal_alloc) refers to memcpya.o(.text) for __aeabi_memcpy
    mallocr.o(i.internal_alloc) refers to mvars.o(.data) for __microlib_freelist
    mallocr.o(i.realloc) refers to mallocr.o(i.__free$realloc) for __free$realloc
    mallocr.o(i.realloc) refers to mallocr.o(i.internal_alloc) for internal_alloc
    mallocr.o(i.realloc) refers to mallocr.o(i.__malloc$realloc) for __malloc$realloc
    mallocr.o(i.realloc) refers to mvars.o(.data) for __microlib_freelist
    malloca.o(i.__aligned_malloc) refers to mvars.o(.data) for __microlib_freelist_initialised
    malloca.o(i.__aligned_malloc) refers to mvars.o(.data) for __microlib_freelist
    malloca.o(i.__aligned_malloc) refers to startup_stm32f407xx.o(HEAP) for __heap_base
    malloca.o(i.__free$memalign) refers to mvars.o(.data) for __microlib_freelist
    malloca.o(i.__malloc$memalign) refers to malloca.o(i.__aligned_malloc) for __aligned_malloc
    mallocra.o(i.__aligned_malloc$realloc) refers to mallocra.o(i.internal_alloc) for internal_alloc
    mallocra.o(i.__aligned_malloc$realloc) refers to mvars.o(.data) for __microlib_freelist_initialised
    mallocra.o(i.__aligned_malloc$realloc) refers to startup_stm32f407xx.o(HEAP) for __heap_base
    mallocra.o(i.__aligned_malloc$realloc) refers to mvars.o(.data) for __microlib_freelist
    mallocra.o(i.__free$realloc$memalign) refers to mvars.o(.data) for __microlib_freelist
    mallocra.o(i.__malloc$realloc$memalign) refers to mallocra.o(i.__aligned_malloc$realloc) for __aligned_malloc$realloc
    mallocra.o(i.__realloc$memalign) refers to mallocra.o(i.__free$realloc$memalign) for __free$realloc$memalign
    mallocra.o(i.__realloc$memalign) refers to mallocra.o(i.internal_alloc) for internal_alloc
    mallocra.o(i.__realloc$memalign) refers to mallocra.o(i.__malloc$realloc$memalign) for __malloc$realloc$memalign
    mallocra.o(i.__realloc$memalign) refers to mvars.o(.data) for __microlib_freelist
    mallocra.o(i.internal_alloc) refers to memcpya.o(.text) for __aeabi_memcpy
    mallocra.o(i.internal_alloc) refers to mvars.o(.data) for __microlib_freelist
    cxa_atexit.o(.text) refers to aeabi_atexit.o(.text) for __aeabi_atexit
    abort_message.cpp.o(.ARM.exidx.text.abort_message) refers to abort_message.cpp.o(.text.abort_message) for [Anonymous Symbol]
    dunder.o(i.__mathlib_dbl_divzero) refers to ddiv.o(.text) for __aeabi_ddiv
    dunder.o(i.__mathlib_dbl_infnan) refers to dadd.o(.text) for __aeabi_dadd
    dunder.o(i.__mathlib_dbl_infnan2) refers to dadd.o(.text) for __aeabi_dadd
    dunder.o(i.__mathlib_dbl_invalid) refers to ddiv.o(.text) for __aeabi_ddiv
    dunder.o(i.__mathlib_dbl_overflow) refers to dmul.o(.text) for __aeabi_dmul
    dunder.o(i.__mathlib_dbl_posinfnan) refers to dmul.o(.text) for __aeabi_dmul
    dunder.o(i.__mathlib_dbl_underflow) refers to dmul.o(.text) for __aeabi_dmul
    frexp.o(i.__hardfp_frexp) refers (Special) to iusefp.o(.text) for __I$use$fp
    frexp.o(i.__hardfp_frexp) refers to dmul.o(.text) for __aeabi_dmul
    frexp.o(i.__softfp_frexp) refers (Special) to iusefp.o(.text) for __I$use$fp
    frexp.o(i.__softfp_frexp) refers to dmul.o(.text) for __aeabi_dmul
    frexp.o(i.frexp) refers (Special) to iusefp.o(.text) for __I$use$fp
    frexp.o(i.frexp) refers to dmul.o(.text) for __aeabi_dmul
    log.o(i.__hardfp_log) refers (Special) to iusefp.o(.text) for __I$use$fp
    log.o(i.__hardfp_log) refers to dunder.o(i.__mathlib_dbl_infnan) for __mathlib_dbl_infnan
    log.o(i.__hardfp_log) refers to errno.o(i.__set_errno) for __set_errno
    log.o(i.__hardfp_log) refers to dunder.o(i.__mathlib_dbl_invalid) for __mathlib_dbl_invalid
    log.o(i.__hardfp_log) refers to dunder.o(i.__mathlib_dbl_divzero) for __mathlib_dbl_divzero
    log.o(i.__hardfp_log) refers to dmul.o(.text) for __aeabi_dmul
    log.o(i.__hardfp_log) refers to dadd.o(.text) for __aeabi_dsub
    log.o(i.__hardfp_log) refers to cdcmple.o(.text) for __aeabi_cdcmpeq
    log.o(i.__hardfp_log) refers to dflti.o(.text) for __aeabi_i2d
    log.o(i.__hardfp_log) refers to ddiv.o(.text) for __aeabi_ddiv
    log.o(i.__hardfp_log) refers to poly.o(i.__kernel_poly) for __kernel_poly
    log.o(i.__hardfp_log) refers to qnan.o(.constdata) for __mathlib_zero
    log.o(i.__hardfp_log) refers to log.o(.constdata) for .constdata
    log.o(i.__softfp_log) refers (Special) to iusefp.o(.text) for __I$use$fp
    log.o(i.__softfp_log) refers to log.o(i.__hardfp_log) for __hardfp_log
    log.o(i.log) refers (Special) to iusefp.o(.text) for __I$use$fp
    log.o(i.log) refers to log.o(i.__hardfp_log) for __hardfp_log
    log.o(.constdata) refers (Special) to iusefp.o(.text) for __I$use$fp
    entry2.o(.ARM.Collect$$$$00000001) refers to entry2.o(.ARM.Collect$$$$00002712) for __lit__00000000
    entry2.o(.ARM.Collect$$$$00002712) refers to startup_stm32f407xx.o(STACK) for __initial_sp
    entry2.o(__vectab_stack_and_reset_area) refers to startup_stm32f407xx.o(STACK) for __initial_sp
    entry2.o(__vectab_stack_and_reset_area) refers to entry.o(.ARM.Collect$$$$00000000) for __main
    entry5.o(.ARM.Collect$$$$00000004) refers to init.o(.text) for __scatterload
    entry8a.o(.ARM.Collect$$$$00000009) refers (Weak) to cpp_init.o(.text) for __cpp_initialize__aeabi_
    entry9a.o(.ARM.Collect$$$$0000000B) refers to lto-llvm-af9222.o(.text.main) for main
    entry9b.o(.ARM.Collect$$$$0000000C) refers to lto-llvm-af9222.o(.text.main) for main
    entry10b.o(.ARM.Collect$$$$0000000E) refers (Weak) to cxa_finalize.o(.text) for __cxa_finalize
    fputc.o(i.fputc) refers (Special) to iusesemip.o(.text) for __I$use$semihosting$fputc
    fputc.o(i.fputc) refers (Special) to semi.o(.text) for __semihosting_library_function
    fputc_h.o(i._fputc$hlt) refers (Special) to iusesemip.o(.text) for __I$use$semihosting$fputc
    fputc_h.o(i._fputc$hlt) refers (Special) to semi.o(.text) for __semihosting_library_function
    uldiv.o(.text) refers to llushr.o(.text) for __aeabi_llsr
    uldiv.o(.text) refers to llshl.o(.text) for __aeabi_llsl
    errno.o(i.__aeabi_errno_addr) refers to errno.o(.data) for .data
    errno.o(i.__read_errno) refers to errno.o(.data) for .data
    errno.o(i.__set_errno) refers to errno.o(.data) for .data
    aeabi_atexit.o(.text) refers (Special) to cxa_finalize.o(.text) for __cxa_finalize
    aeabi_atexit.o(.text) refers to malloc.o(i.malloc) for malloc
    aeabi_atexit.o(.text) refers to cpp_dtor.o(.text) for __rt_ddtor_pointer_addr
    dadd.o(.text) refers (Special) to iusefp.o(.text) for __I$use$fp
    dadd.o(.text) refers to llshl.o(.text) for __aeabi_llsl
    dadd.o(.text) refers to llsshr.o(.text) for __aeabi_lasr
    dadd.o(.text) refers to depilogue.o(.text) for _double_epilogue
    dmul.o(.text) refers (Special) to iusefp.o(.text) for __I$use$fp
    dmul.o(.text) refers to depilogue.o(.text) for _double_epilogue
    ddiv.o(.text) refers (Special) to iusefp.o(.text) for __I$use$fp
    ddiv.o(.text) refers to depilogue.o(.text) for _double_round
    dflti.o(.text) refers (Special) to iusefp.o(.text) for __I$use$fp
    dflti.o(.text) refers to depilogue.o(.text) for _double_epilogue
    dfixul.o(.text) refers (Special) to iusefp.o(.text) for __I$use$fp
    dfixul.o(.text) refers to llushr.o(.text) for __aeabi_llsr
    dfixul.o(.text) refers to llshl.o(.text) for __aeabi_llsl
    cdcmple.o(.text) refers (Special) to iusefp.o(.text) for __I$use$fp
    cdrcmple.o(.text) refers (Special) to iusefp.o(.text) for __I$use$fp
    poly.o(i.__kernel_poly) refers (Special) to iusefp.o(.text) for __I$use$fp
    poly.o(i.__kernel_poly) refers to dmul.o(.text) for __aeabi_dmul
    poly.o(i.__kernel_poly) refers to dadd.o(.text) for __aeabi_dadd
    qnan.o(.constdata) refers (Special) to iusefp.o(.text) for __I$use$fp
    init.o(.text) refers to entry5.o(.ARM.Collect$$$$00000004) for __main_after_scatterload
    cpp_dtor.o(.text) refers to cpp_dtor.o(.data) for .data
    cxa_finalize.o(.text) refers (Special) to cpp_final.o(.text) for __rt_lib_shutdown_cpp_2
    cxa_finalize.o(.text) refers to cpp_dtor.o(.text) for __rt_ddtor_pointer_addr
    cxa_finalize.o(.text) refers to malloc.o(i.free) for free
    depilogue.o(.text) refers (Special) to iusefp.o(.text) for __I$use$fp
    depilogue.o(.text) refers to llshl.o(.text) for __aeabi_llsl
    depilogue.o(.text) refers to llushr.o(.text) for __aeabi_llsr
    dneg.o(.text) refers (Special) to iusefp.o(.text) for __I$use$fp
    cpp_final.o(.text) refers (Special) to entry10b.o(.ARM.Collect$$$$0000000E) for __rt_final_cpp$nonempty
    lto-llvm-af9222.o(.text.SystemClock_Config) refers to memseta.o(.text) for __aeabi_memclr4
    lto-llvm-af9222.o(.text.SystemClock_Config) refers to lto-llvm-af9222.o(.text.HAL_RCC_OscConfig) for HAL_RCC_OscConfig
    lto-llvm-af9222.o(.text.SystemClock_Config) refers to lto-llvm-af9222.o(.text.HAL_RCC_ClockConfig) for HAL_RCC_ClockConfig
    lto-llvm-af9222.o(.ARM.exidx.text.SystemClock_Config) refers to lto-llvm-af9222.o(.text.SystemClock_Config) for [Anonymous Symbol]
    lto-llvm-af9222.o(.ARM.exidx.text.Error_Handler) refers to lto-llvm-af9222.o(.text.Error_Handler) for [Anonymous Symbol]
    lto-llvm-af9222.o(.text.MX_GPIO_Init) refers to lto-llvm-af9222.o(.text.HAL_GPIO_WritePin) for HAL_GPIO_WritePin
    lto-llvm-af9222.o(.text.MX_GPIO_Init) refers to lto-llvm-af9222.o(.text.HAL_GPIO_Init) for HAL_GPIO_Init
    lto-llvm-af9222.o(.text.MX_GPIO_Init) refers to lto-llvm-af9222.o(.text.HAL_NVIC_SetPriority) for HAL_NVIC_SetPriority
    lto-llvm-af9222.o(.text.MX_GPIO_Init) refers to lto-llvm-af9222.o(.text.HAL_NVIC_EnableIRQ) for HAL_NVIC_EnableIRQ
    lto-llvm-af9222.o(.ARM.exidx.text.MX_GPIO_Init) refers to lto-llvm-af9222.o(.text.MX_GPIO_Init) for [Anonymous Symbol]
    lto-llvm-af9222.o(.text.MX_TIM1_Init) refers to lto-llvm-af9222.o(.bss.htim1) for htim1
    lto-llvm-af9222.o(.text.MX_TIM1_Init) refers to lto-llvm-af9222.o(.text.HAL_TIM_Base_Init) for HAL_TIM_Base_Init
    lto-llvm-af9222.o(.text.MX_TIM1_Init) refers to lto-llvm-af9222.o(.text.HAL_TIM_ConfigClockSource) for HAL_TIM_ConfigClockSource
    lto-llvm-af9222.o(.text.MX_TIM1_Init) refers to lto-llvm-af9222.o(.text.HAL_TIM_PWM_Init) for HAL_TIM_PWM_Init
    lto-llvm-af9222.o(.text.MX_TIM1_Init) refers to lto-llvm-af9222.o(.text.HAL_TIMEx_MasterConfigSynchronization) for HAL_TIMEx_MasterConfigSynchronization
    lto-llvm-af9222.o(.text.MX_TIM1_Init) refers to lto-llvm-af9222.o(.text.HAL_TIM_PWM_ConfigChannel) for HAL_TIM_PWM_ConfigChannel
    lto-llvm-af9222.o(.text.MX_TIM1_Init) refers to lto-llvm-af9222.o(.text.HAL_TIMEx_ConfigBreakDeadTime) for HAL_TIMEx_ConfigBreakDeadTime
    lto-llvm-af9222.o(.text.MX_TIM1_Init) refers to lto-llvm-af9222.o(.text.HAL_TIM_MspPostInit) for HAL_TIM_MspPostInit
    lto-llvm-af9222.o(.ARM.exidx.text.MX_TIM1_Init) refers to lto-llvm-af9222.o(.text.MX_TIM1_Init) for [Anonymous Symbol]
    lto-llvm-af9222.o(.text.HAL_TIM_MspPostInit) refers to lto-llvm-af9222.o(.text.HAL_GPIO_Init) for HAL_GPIO_Init
    lto-llvm-af9222.o(.ARM.exidx.text.HAL_TIM_MspPostInit) refers to lto-llvm-af9222.o(.text.HAL_TIM_MspPostInit) for [Anonymous Symbol]
    lto-llvm-af9222.o(.text.MX_TIM4_Init) refers to lto-llvm-af9222.o(.bss.htim4) for htim4
    lto-llvm-af9222.o(.text.MX_TIM4_Init) refers to lto-llvm-af9222.o(.text.HAL_TIM_Base_Init) for HAL_TIM_Base_Init
    lto-llvm-af9222.o(.text.MX_TIM4_Init) refers to lto-llvm-af9222.o(.text.HAL_TIM_ConfigClockSource) for HAL_TIM_ConfigClockSource
    lto-llvm-af9222.o(.text.MX_TIM4_Init) refers to lto-llvm-af9222.o(.text.HAL_TIM_PWM_Init) for HAL_TIM_PWM_Init
    lto-llvm-af9222.o(.text.MX_TIM4_Init) refers to lto-llvm-af9222.o(.text.HAL_TIMEx_MasterConfigSynchronization) for HAL_TIMEx_MasterConfigSynchronization
    lto-llvm-af9222.o(.text.MX_TIM4_Init) refers to lto-llvm-af9222.o(.text.HAL_TIM_PWM_ConfigChannel) for HAL_TIM_PWM_ConfigChannel
    lto-llvm-af9222.o(.text.MX_TIM4_Init) refers to lto-llvm-af9222.o(.text.HAL_TIM_MspPostInit) for HAL_TIM_MspPostInit
    lto-llvm-af9222.o(.ARM.exidx.text.MX_TIM4_Init) refers to lto-llvm-af9222.o(.text.MX_TIM4_Init) for [Anonymous Symbol]
    lto-llvm-af9222.o(.text.MX_TIM5_Init) refers to lto-llvm-af9222.o(.bss.htim5) for htim5
    lto-llvm-af9222.o(.text.MX_TIM5_Init) refers to lto-llvm-af9222.o(.text.HAL_TIM_Base_Init) for HAL_TIM_Base_Init
    lto-llvm-af9222.o(.text.MX_TIM5_Init) refers to lto-llvm-af9222.o(.text.HAL_TIM_ConfigClockSource) for HAL_TIM_ConfigClockSource
    lto-llvm-af9222.o(.text.MX_TIM5_Init) refers to lto-llvm-af9222.o(.text.HAL_TIM_PWM_Init) for HAL_TIM_PWM_Init
    lto-llvm-af9222.o(.text.MX_TIM5_Init) refers to lto-llvm-af9222.o(.text.HAL_TIMEx_MasterConfigSynchronization) for HAL_TIMEx_MasterConfigSynchronization
    lto-llvm-af9222.o(.text.MX_TIM5_Init) refers to lto-llvm-af9222.o(.text.HAL_TIM_PWM_ConfigChannel) for HAL_TIM_PWM_ConfigChannel
    lto-llvm-af9222.o(.text.MX_TIM5_Init) refers to lto-llvm-af9222.o(.text.HAL_TIM_MspPostInit) for HAL_TIM_MspPostInit
    lto-llvm-af9222.o(.ARM.exidx.text.MX_TIM5_Init) refers to lto-llvm-af9222.o(.text.MX_TIM5_Init) for [Anonymous Symbol]
    lto-llvm-af9222.o(.text.MX_TIM8_Init) refers to lto-llvm-af9222.o(.bss.htim8) for htim8
    lto-llvm-af9222.o(.text.MX_TIM8_Init) refers to lto-llvm-af9222.o(.text.HAL_TIM_Base_Init) for HAL_TIM_Base_Init
    lto-llvm-af9222.o(.text.MX_TIM8_Init) refers to lto-llvm-af9222.o(.text.HAL_TIM_ConfigClockSource) for HAL_TIM_ConfigClockSource
    lto-llvm-af9222.o(.text.MX_TIM8_Init) refers to lto-llvm-af9222.o(.text.HAL_TIM_PWM_Init) for HAL_TIM_PWM_Init
    lto-llvm-af9222.o(.text.MX_TIM8_Init) refers to lto-llvm-af9222.o(.text.HAL_TIMEx_MasterConfigSynchronization) for HAL_TIMEx_MasterConfigSynchronization
    lto-llvm-af9222.o(.text.MX_TIM8_Init) refers to lto-llvm-af9222.o(.text.HAL_TIM_PWM_ConfigChannel) for HAL_TIM_PWM_ConfigChannel
    lto-llvm-af9222.o(.text.MX_TIM8_Init) refers to lto-llvm-af9222.o(.text.HAL_TIMEx_ConfigBreakDeadTime) for HAL_TIMEx_ConfigBreakDeadTime
    lto-llvm-af9222.o(.text.MX_TIM8_Init) refers to lto-llvm-af9222.o(.text.HAL_TIM_MspPostInit) for HAL_TIM_MspPostInit
    lto-llvm-af9222.o(.ARM.exidx.text.MX_TIM8_Init) refers to lto-llvm-af9222.o(.text.MX_TIM8_Init) for [Anonymous Symbol]
    lto-llvm-af9222.o(.text.MX_TIM10_Init) refers to lto-llvm-af9222.o(.bss.htim10) for htim10
    lto-llvm-af9222.o(.text.MX_TIM10_Init) refers to lto-llvm-af9222.o(.text.HAL_TIM_Base_Init) for HAL_TIM_Base_Init
    lto-llvm-af9222.o(.ARM.exidx.text.MX_TIM10_Init) refers to lto-llvm-af9222.o(.text.MX_TIM10_Init) for [Anonymous Symbol]
    lto-llvm-af9222.o(.text.HAL_TIM_Base_MspInit) refers to lto-llvm-af9222.o(.text.HAL_NVIC_SetPriority) for HAL_NVIC_SetPriority
    lto-llvm-af9222.o(.text.HAL_TIM_Base_MspInit) refers to lto-llvm-af9222.o(.text.HAL_NVIC_EnableIRQ) for HAL_NVIC_EnableIRQ
    lto-llvm-af9222.o(.ARM.exidx.text.HAL_TIM_Base_MspInit) refers to lto-llvm-af9222.o(.text.HAL_TIM_Base_MspInit) for [Anonymous Symbol]
    lto-llvm-af9222.o(.ARM.exidx.text.NMI_Handler) refers to lto-llvm-af9222.o(.text.NMI_Handler) for [Anonymous Symbol]
    lto-llvm-af9222.o(.ARM.exidx.text.HardFault_Handler) refers to lto-llvm-af9222.o(.text.HardFault_Handler) for [Anonymous Symbol]
    lto-llvm-af9222.o(.ARM.exidx.text.MemManage_Handler) refers to lto-llvm-af9222.o(.text.MemManage_Handler) for [Anonymous Symbol]
    lto-llvm-af9222.o(.ARM.exidx.text.BusFault_Handler) refers to lto-llvm-af9222.o(.text.BusFault_Handler) for [Anonymous Symbol]
    lto-llvm-af9222.o(.ARM.exidx.text.UsageFault_Handler) refers to lto-llvm-af9222.o(.text.UsageFault_Handler) for [Anonymous Symbol]
    lto-llvm-af9222.o(.ARM.exidx.text.SVC_Handler) refers to lto-llvm-af9222.o(.text.SVC_Handler) for [Anonymous Symbol]
    lto-llvm-af9222.o(.ARM.exidx.text.DebugMon_Handler) refers to lto-llvm-af9222.o(.text.DebugMon_Handler) for [Anonymous Symbol]
    lto-llvm-af9222.o(.ARM.exidx.text.PendSV_Handler) refers to lto-llvm-af9222.o(.text.PendSV_Handler) for [Anonymous Symbol]
    lto-llvm-af9222.o(.text.SysTick_Handler) refers to lto-llvm-af9222.o(.text.HAL_IncTick) for HAL_IncTick
    lto-llvm-af9222.o(.ARM.exidx.text.SysTick_Handler) refers to lto-llvm-af9222.o(.text.SysTick_Handler) for [Anonymous Symbol]
    lto-llvm-af9222.o(.text.EXTI0_IRQHandler) refers to lto-llvm-af9222.o(.text.HAL_GPIO_EXTI_IRQHandler) for HAL_GPIO_EXTI_IRQHandler
    lto-llvm-af9222.o(.ARM.exidx.text.EXTI0_IRQHandler) refers to lto-llvm-af9222.o(.text.EXTI0_IRQHandler) for [Anonymous Symbol]
    lto-llvm-af9222.o(.text.EXTI3_IRQHandler) refers to lto-llvm-af9222.o(.text.HAL_GPIO_EXTI_IRQHandler) for HAL_GPIO_EXTI_IRQHandler
    lto-llvm-af9222.o(.ARM.exidx.text.EXTI3_IRQHandler) refers to lto-llvm-af9222.o(.text.EXTI3_IRQHandler) for [Anonymous Symbol]
    lto-llvm-af9222.o(.text.DMA1_Stream1_IRQHandler) refers to lto-llvm-af9222.o(.bss.hdma_usart3_rx) for hdma_usart3_rx
    lto-llvm-af9222.o(.text.DMA1_Stream1_IRQHandler) refers to lto-llvm-af9222.o(.text.HAL_DMA_IRQHandler) for HAL_DMA_IRQHandler
    lto-llvm-af9222.o(.ARM.exidx.text.DMA1_Stream1_IRQHandler) refers to lto-llvm-af9222.o(.text.DMA1_Stream1_IRQHandler) for [Anonymous Symbol]
    lto-llvm-af9222.o(.text.CAN1_RX0_IRQHandler) refers to lto-llvm-af9222.o(.bss.hcan1) for hcan1
    lto-llvm-af9222.o(.text.CAN1_RX0_IRQHandler) refers to lto-llvm-af9222.o(.text.HAL_CAN_IRQHandler) for HAL_CAN_IRQHandler
    lto-llvm-af9222.o(.ARM.exidx.text.CAN1_RX0_IRQHandler) refers to lto-llvm-af9222.o(.text.CAN1_RX0_IRQHandler) for [Anonymous Symbol]
    lto-llvm-af9222.o(.text.TIM1_UP_TIM10_IRQHandler) refers to lto-llvm-af9222.o(.bss.htim1) for htim1
    lto-llvm-af9222.o(.text.TIM1_UP_TIM10_IRQHandler) refers to lto-llvm-af9222.o(.text.HAL_TIM_IRQHandler) for HAL_TIM_IRQHandler
    lto-llvm-af9222.o(.text.TIM1_UP_TIM10_IRQHandler) refers to lto-llvm-af9222.o(.bss.htim10) for htim10
    lto-llvm-af9222.o(.ARM.exidx.text.TIM1_UP_TIM10_IRQHandler) refers to lto-llvm-af9222.o(.text.TIM1_UP_TIM10_IRQHandler) for [Anonymous Symbol]
    lto-llvm-af9222.o(.text.USART1_IRQHandler) refers to lto-llvm-af9222.o(.bss.huart1) for huart1
    lto-llvm-af9222.o(.text.USART1_IRQHandler) refers to lto-llvm-af9222.o(.text.HAL_UART_IRQHandler) for HAL_UART_IRQHandler
    lto-llvm-af9222.o(.ARM.exidx.text.USART1_IRQHandler) refers to lto-llvm-af9222.o(.text.USART1_IRQHandler) for [Anonymous Symbol]
    lto-llvm-af9222.o(.text.DMA2_Stream2_IRQHandler) refers to lto-llvm-af9222.o(.bss.hdma_usart1_rx) for hdma_usart1_rx
    lto-llvm-af9222.o(.text.DMA2_Stream2_IRQHandler) refers to lto-llvm-af9222.o(.text.HAL_DMA_IRQHandler) for HAL_DMA_IRQHandler
    lto-llvm-af9222.o(.ARM.exidx.text.DMA2_Stream2_IRQHandler) refers to lto-llvm-af9222.o(.text.DMA2_Stream2_IRQHandler) for [Anonymous Symbol]
    lto-llvm-af9222.o(.text.CAN2_RX0_IRQHandler) refers to lto-llvm-af9222.o(.bss.hcan2) for hcan2
    lto-llvm-af9222.o(.text.CAN2_RX0_IRQHandler) refers to lto-llvm-af9222.o(.text.HAL_CAN_IRQHandler) for HAL_CAN_IRQHandler
    lto-llvm-af9222.o(.ARM.exidx.text.CAN2_RX0_IRQHandler) refers to lto-llvm-af9222.o(.text.CAN2_RX0_IRQHandler) for [Anonymous Symbol]
    lto-llvm-af9222.o(.text.OTG_FS_IRQHandler) refers to lto-llvm-af9222.o(.text.HAL_PCD_IRQHandler) for HAL_PCD_IRQHandler
    lto-llvm-af9222.o(.ARM.exidx.text.OTG_FS_IRQHandler) refers to lto-llvm-af9222.o(.text.OTG_FS_IRQHandler) for [Anonymous Symbol]
    lto-llvm-af9222.o(.text.DMA2_Stream7_IRQHandler) refers to lto-llvm-af9222.o(.bss.hdma_usart1_tx) for hdma_usart1_tx
    lto-llvm-af9222.o(.text.DMA2_Stream7_IRQHandler) refers to lto-llvm-af9222.o(.text.HAL_DMA_IRQHandler) for HAL_DMA_IRQHandler
    lto-llvm-af9222.o(.ARM.exidx.text.DMA2_Stream7_IRQHandler) refers to lto-llvm-af9222.o(.text.DMA2_Stream7_IRQHandler) for [Anonymous Symbol]
    lto-llvm-af9222.o(.text.USART6_IRQHandler) refers to lto-llvm-af9222.o(.bss.huart6) for huart6
    lto-llvm-af9222.o(.text.USART6_IRQHandler) refers to lto-llvm-af9222.o(.text.HAL_UART_IRQHandler) for HAL_UART_IRQHandler
    lto-llvm-af9222.o(.ARM.exidx.text.USART6_IRQHandler) refers to lto-llvm-af9222.o(.text.USART6_IRQHandler) for [Anonymous Symbol]
    lto-llvm-af9222.o(.ARM.exidx.text.HAL_MspInit) refers to lto-llvm-af9222.o(.text.HAL_MspInit) for [Anonymous Symbol]
    lto-llvm-af9222.o(.text.MX_ADC1_Init) refers to lto-llvm-af9222.o(.bss.hadc1) for hadc1
    lto-llvm-af9222.o(.text.MX_ADC1_Init) refers to lto-llvm-af9222.o(.text.HAL_ADC_Init) for HAL_ADC_Init
    lto-llvm-af9222.o(.text.MX_ADC1_Init) refers to lto-llvm-af9222.o(.text.HAL_ADC_ConfigChannel) for HAL_ADC_ConfigChannel
    lto-llvm-af9222.o(.ARM.exidx.text.MX_ADC1_Init) refers to lto-llvm-af9222.o(.text.MX_ADC1_Init) for [Anonymous Symbol]
    lto-llvm-af9222.o(.text.MX_ADC3_Init) refers to lto-llvm-af9222.o(.bss.hadc3) for hadc3
    lto-llvm-af9222.o(.text.MX_ADC3_Init) refers to lto-llvm-af9222.o(.text.HAL_ADC_Init) for HAL_ADC_Init
    lto-llvm-af9222.o(.text.MX_ADC3_Init) refers to lto-llvm-af9222.o(.text.HAL_ADC_ConfigChannel) for HAL_ADC_ConfigChannel
    lto-llvm-af9222.o(.ARM.exidx.text.MX_ADC3_Init) refers to lto-llvm-af9222.o(.text.MX_ADC3_Init) for [Anonymous Symbol]
    lto-llvm-af9222.o(.text.HAL_ADC_MspInit) refers to lto-llvm-af9222.o(.text.HAL_GPIO_Init) for HAL_GPIO_Init
    lto-llvm-af9222.o(.ARM.exidx.text.HAL_ADC_MspInit) refers to lto-llvm-af9222.o(.text.HAL_ADC_MspInit) for [Anonymous Symbol]
    lto-llvm-af9222.o(.text.MX_USART1_UART_Init) refers to lto-llvm-af9222.o(.bss.huart1) for huart1
    lto-llvm-af9222.o(.text.MX_USART1_UART_Init) refers to lto-llvm-af9222.o(.text.HAL_UART_Init) for HAL_UART_Init
    lto-llvm-af9222.o(.ARM.exidx.text.MX_USART1_UART_Init) refers to lto-llvm-af9222.o(.text.MX_USART1_UART_Init) for [Anonymous Symbol]
    lto-llvm-af9222.o(.text.MX_USART3_UART_Init) refers to lto-llvm-af9222.o(.bss.huart3) for huart3
    lto-llvm-af9222.o(.text.MX_USART3_UART_Init) refers to lto-llvm-af9222.o(.text.HAL_UART_Init) for HAL_UART_Init
    lto-llvm-af9222.o(.ARM.exidx.text.MX_USART3_UART_Init) refers to lto-llvm-af9222.o(.text.MX_USART3_UART_Init) for [Anonymous Symbol]
    lto-llvm-af9222.o(.text.MX_USART6_UART_Init) refers to lto-llvm-af9222.o(.bss.huart6) for huart6
    lto-llvm-af9222.o(.text.MX_USART6_UART_Init) refers to lto-llvm-af9222.o(.text.HAL_UART_Init) for HAL_UART_Init
    lto-llvm-af9222.o(.ARM.exidx.text.MX_USART6_UART_Init) refers to lto-llvm-af9222.o(.text.MX_USART6_UART_Init) for [Anonymous Symbol]
    lto-llvm-af9222.o(.text.HAL_UART_MspInit) refers to lto-llvm-af9222.o(.text.HAL_GPIO_Init) for HAL_GPIO_Init
    lto-llvm-af9222.o(.text.HAL_UART_MspInit) refers to lto-llvm-af9222.o(.bss.hdma_usart1_tx) for hdma_usart1_tx
    lto-llvm-af9222.o(.text.HAL_UART_MspInit) refers to lto-llvm-af9222.o(.text.HAL_DMA_Init) for HAL_DMA_Init
    lto-llvm-af9222.o(.text.HAL_UART_MspInit) refers to lto-llvm-af9222.o(.bss.hdma_usart1_rx) for hdma_usart1_rx
    lto-llvm-af9222.o(.text.HAL_UART_MspInit) refers to lto-llvm-af9222.o(.text.HAL_NVIC_SetPriority) for HAL_NVIC_SetPriority
    lto-llvm-af9222.o(.text.HAL_UART_MspInit) refers to lto-llvm-af9222.o(.text.HAL_NVIC_EnableIRQ) for HAL_NVIC_EnableIRQ
    lto-llvm-af9222.o(.text.HAL_UART_MspInit) refers to lto-llvm-af9222.o(.bss.hdma_usart3_rx) for hdma_usart3_rx
    lto-llvm-af9222.o(.ARM.exidx.text.HAL_UART_MspInit) refers to lto-llvm-af9222.o(.text.HAL_UART_MspInit) for [Anonymous Symbol]
    lto-llvm-af9222.o(.text.MX_DMA_Init) refers to lto-llvm-af9222.o(.text.HAL_NVIC_SetPriority) for HAL_NVIC_SetPriority
    lto-llvm-af9222.o(.text.MX_DMA_Init) refers to lto-llvm-af9222.o(.text.HAL_NVIC_EnableIRQ) for HAL_NVIC_EnableIRQ
    lto-llvm-af9222.o(.ARM.exidx.text.MX_DMA_Init) refers to lto-llvm-af9222.o(.text.MX_DMA_Init) for [Anonymous Symbol]
    lto-llvm-af9222.o(.text.MX_CAN1_Init) refers to lto-llvm-af9222.o(.bss.hcan1) for hcan1
    lto-llvm-af9222.o(.text.MX_CAN1_Init) refers to lto-llvm-af9222.o(.text.HAL_CAN_Init) for HAL_CAN_Init
    lto-llvm-af9222.o(.ARM.exidx.text.MX_CAN1_Init) refers to lto-llvm-af9222.o(.text.MX_CAN1_Init) for [Anonymous Symbol]
    lto-llvm-af9222.o(.text.MX_CAN2_Init) refers to lto-llvm-af9222.o(.bss.hcan2) for hcan2
    lto-llvm-af9222.o(.text.MX_CAN2_Init) refers to lto-llvm-af9222.o(.text.HAL_CAN_Init) for HAL_CAN_Init
    lto-llvm-af9222.o(.ARM.exidx.text.MX_CAN2_Init) refers to lto-llvm-af9222.o(.text.MX_CAN2_Init) for [Anonymous Symbol]
    lto-llvm-af9222.o(.text.HAL_CAN_MspInit) refers to lto-llvm-af9222.o(.bss.HAL_RCC_CAN1_CLK_ENABLED) for HAL_RCC_CAN1_CLK_ENABLED
    lto-llvm-af9222.o(.text.HAL_CAN_MspInit) refers to lto-llvm-af9222.o(.text.HAL_GPIO_Init) for HAL_GPIO_Init
    lto-llvm-af9222.o(.text.HAL_CAN_MspInit) refers to lto-llvm-af9222.o(.text.HAL_NVIC_SetPriority) for HAL_NVIC_SetPriority
    lto-llvm-af9222.o(.text.HAL_CAN_MspInit) refers to lto-llvm-af9222.o(.text.HAL_NVIC_EnableIRQ) for HAL_NVIC_EnableIRQ
    lto-llvm-af9222.o(.ARM.exidx.text.HAL_CAN_MspInit) refers to lto-llvm-af9222.o(.text.HAL_CAN_MspInit) for [Anonymous Symbol]
    lto-llvm-af9222.o(.text.MX_I2C3_Init) refers to lto-llvm-af9222.o(.bss.hi2c3) for hi2c3
    lto-llvm-af9222.o(.text.MX_I2C3_Init) refers to lto-llvm-af9222.o(.text.HAL_I2C_Init) for HAL_I2C_Init
    lto-llvm-af9222.o(.ARM.exidx.text.MX_I2C3_Init) refers to lto-llvm-af9222.o(.text.MX_I2C3_Init) for [Anonymous Symbol]
    lto-llvm-af9222.o(.text.HAL_I2C_MspInit) refers to lto-llvm-af9222.o(.text.HAL_GPIO_Init) for HAL_GPIO_Init
    lto-llvm-af9222.o(.ARM.exidx.text.HAL_I2C_MspInit) refers to lto-llvm-af9222.o(.text.HAL_I2C_MspInit) for [Anonymous Symbol]
    lto-llvm-af9222.o(.text.MX_SPI1_Init) refers to lto-llvm-af9222.o(.bss.hspi1) for hspi1
    lto-llvm-af9222.o(.text.MX_SPI1_Init) refers to lto-llvm-af9222.o(.text.HAL_SPI_Init) for HAL_SPI_Init
    lto-llvm-af9222.o(.ARM.exidx.text.MX_SPI1_Init) refers to lto-llvm-af9222.o(.text.MX_SPI1_Init) for [Anonymous Symbol]
    lto-llvm-af9222.o(.text.MX_SPI2_Init) refers to lto-llvm-af9222.o(.bss.hspi2) for hspi2
    lto-llvm-af9222.o(.text.MX_SPI2_Init) refers to lto-llvm-af9222.o(.text.HAL_SPI_Init) for HAL_SPI_Init
    lto-llvm-af9222.o(.ARM.exidx.text.MX_SPI2_Init) refers to lto-llvm-af9222.o(.text.MX_SPI2_Init) for [Anonymous Symbol]
    lto-llvm-af9222.o(.text.HAL_SPI_MspInit) refers to lto-llvm-af9222.o(.text.HAL_GPIO_Init) for HAL_GPIO_Init
    lto-llvm-af9222.o(.ARM.exidx.text.HAL_SPI_MspInit) refers to lto-llvm-af9222.o(.text.HAL_SPI_MspInit) for [Anonymous Symbol]
    lto-llvm-af9222.o(.text.MX_IWDG_Init) refers to lto-llvm-af9222.o(.bss.hiwdg) for hiwdg
    lto-llvm-af9222.o(.text.MX_IWDG_Init) refers to lto-llvm-af9222.o(.text.HAL_IWDG_Init) for HAL_IWDG_Init
    lto-llvm-af9222.o(.ARM.exidx.text.MX_IWDG_Init) refers to lto-llvm-af9222.o(.text.MX_IWDG_Init) for [Anonymous Symbol]
    lto-llvm-af9222.o(.text.MX_USB_DEVICE_Init) refers to lto-llvm-af9222.o(.text.USBD_Init) for USBD_Init
    lto-llvm-af9222.o(.text.MX_USB_DEVICE_Init) refers to lto-llvm-af9222.o(.text.USBD_RegisterClass) for USBD_RegisterClass
    lto-llvm-af9222.o(.text.MX_USB_DEVICE_Init) refers to lto-llvm-af9222.o(.text.USBD_CDC_RegisterInterface) for USBD_CDC_RegisterInterface
    lto-llvm-af9222.o(.text.MX_USB_DEVICE_Init) refers to lto-llvm-af9222.o(.text.USBD_Start) for USBD_Start
    lto-llvm-af9222.o(.ARM.exidx.text.MX_USB_DEVICE_Init) refers to lto-llvm-af9222.o(.text.MX_USB_DEVICE_Init) for [Anonymous Symbol]
    lto-llvm-af9222.o(.text.CDC_Init_FS) refers to lto-llvm-af9222.o(.text.USBD_CDC_SetTxBuffer) for USBD_CDC_SetTxBuffer
    lto-llvm-af9222.o(.text.CDC_Init_FS) refers to lto-llvm-af9222.o(.bss.UserRxBufferFS) for UserRxBufferFS
    lto-llvm-af9222.o(.text.CDC_Init_FS) refers to lto-llvm-af9222.o(.text.USBD_CDC_SetRxBuffer) for USBD_CDC_SetRxBuffer
    lto-llvm-af9222.o(.ARM.exidx.text.CDC_Init_FS) refers to lto-llvm-af9222.o(.text.CDC_Init_FS) for [Anonymous Symbol]
    lto-llvm-af9222.o(.ARM.exidx.text.CDC_DeInit_FS) refers to lto-llvm-af9222.o(.text.CDC_DeInit_FS) for [Anonymous Symbol]
    lto-llvm-af9222.o(.ARM.exidx.text.CDC_Control_FS) refers to lto-llvm-af9222.o(.text.CDC_Control_FS) for [Anonymous Symbol]
    lto-llvm-af9222.o(.text.CDC_Receive_FS) refers to lto-llvm-af9222.o(.text.USBD_CDC_SetRxBuffer) for USBD_CDC_SetRxBuffer
    lto-llvm-af9222.o(.text.CDC_Receive_FS) refers to lto-llvm-af9222.o(.text.USBD_CDC_ReceivePacket) for USBD_CDC_ReceivePacket
    lto-llvm-af9222.o(.ARM.exidx.text.CDC_Receive_FS) refers to lto-llvm-af9222.o(.text.CDC_Receive_FS) for [Anonymous Symbol]
    lto-llvm-af9222.o(.text.HAL_PCD_MspInit) refers to lto-llvm-af9222.o(.text.HAL_GPIO_Init) for HAL_GPIO_Init
    lto-llvm-af9222.o(.text.HAL_PCD_MspInit) refers to lto-llvm-af9222.o(.text.HAL_NVIC_SetPriority) for HAL_NVIC_SetPriority
    lto-llvm-af9222.o(.text.HAL_PCD_MspInit) refers to lto-llvm-af9222.o(.text.HAL_NVIC_EnableIRQ) for HAL_NVIC_EnableIRQ
    lto-llvm-af9222.o(.ARM.exidx.text.HAL_PCD_MspInit) refers to lto-llvm-af9222.o(.text.HAL_PCD_MspInit) for [Anonymous Symbol]
    lto-llvm-af9222.o(.text.HAL_PCD_SetupStageCallback) refers to lto-llvm-af9222.o(.text.USBD_LL_SetupStage) for USBD_LL_SetupStage
    lto-llvm-af9222.o(.ARM.exidx.text.HAL_PCD_SetupStageCallback) refers to lto-llvm-af9222.o(.text.HAL_PCD_SetupStageCallback) for [Anonymous Symbol]
    lto-llvm-af9222.o(.text.HAL_PCD_DataOutStageCallback) refers to lto-llvm-af9222.o(.text.USBD_LL_DataOutStage) for USBD_LL_DataOutStage
    lto-llvm-af9222.o(.ARM.exidx.text.HAL_PCD_DataOutStageCallback) refers to lto-llvm-af9222.o(.text.HAL_PCD_DataOutStageCallback) for [Anonymous Symbol]
    lto-llvm-af9222.o(.text.HAL_PCD_DataInStageCallback) refers to lto-llvm-af9222.o(.text.USBD_LL_DataInStage) for USBD_LL_DataInStage
    lto-llvm-af9222.o(.ARM.exidx.text.HAL_PCD_DataInStageCallback) refers to lto-llvm-af9222.o(.text.HAL_PCD_DataInStageCallback) for [Anonymous Symbol]
    lto-llvm-af9222.o(.text.HAL_PCD_SOFCallback) refers to lto-llvm-af9222.o(.text.USBD_LL_SOF) for USBD_LL_SOF
    lto-llvm-af9222.o(.ARM.exidx.text.HAL_PCD_SOFCallback) refers to lto-llvm-af9222.o(.text.HAL_PCD_SOFCallback) for [Anonymous Symbol]
    lto-llvm-af9222.o(.text.HAL_PCD_ResetCallback) refers to lto-llvm-af9222.o(.text.USBD_LL_SetSpeed) for USBD_LL_SetSpeed
    lto-llvm-af9222.o(.text.HAL_PCD_ResetCallback) refers to lto-llvm-af9222.o(.text.USBD_LL_Reset) for USBD_LL_Reset
    lto-llvm-af9222.o(.ARM.exidx.text.HAL_PCD_ResetCallback) refers to lto-llvm-af9222.o(.text.HAL_PCD_ResetCallback) for [Anonymous Symbol]
    lto-llvm-af9222.o(.text.HAL_PCD_SuspendCallback) refers to lto-llvm-af9222.o(.text.USBD_LL_Suspend) for USBD_LL_Suspend
    lto-llvm-af9222.o(.ARM.exidx.text.HAL_PCD_SuspendCallback) refers to lto-llvm-af9222.o(.text.HAL_PCD_SuspendCallback) for [Anonymous Symbol]
    lto-llvm-af9222.o(.text.HAL_PCD_ResumeCallback) refers to lto-llvm-af9222.o(.text.USBD_LL_Resume) for USBD_LL_Resume
    lto-llvm-af9222.o(.ARM.exidx.text.HAL_PCD_ResumeCallback) refers to lto-llvm-af9222.o(.text.HAL_PCD_ResumeCallback) for [Anonymous Symbol]
    lto-llvm-af9222.o(.text.HAL_PCD_ISOOUTIncompleteCallback) refers to lto-llvm-af9222.o(.text.USBD_LL_IsoOUTIncomplete) for USBD_LL_IsoOUTIncomplete
    lto-llvm-af9222.o(.ARM.exidx.text.HAL_PCD_ISOOUTIncompleteCallback) refers to lto-llvm-af9222.o(.text.HAL_PCD_ISOOUTIncompleteCallback) for [Anonymous Symbol]
    lto-llvm-af9222.o(.text.HAL_PCD_ISOINIncompleteCallback) refers to lto-llvm-af9222.o(.text.USBD_LL_IsoINIncomplete) for USBD_LL_IsoINIncomplete
    lto-llvm-af9222.o(.ARM.exidx.text.HAL_PCD_ISOINIncompleteCallback) refers to lto-llvm-af9222.o(.text.HAL_PCD_ISOINIncompleteCallback) for [Anonymous Symbol]
    lto-llvm-af9222.o(.text.HAL_PCD_ConnectCallback) refers to lto-llvm-af9222.o(.text.USBD_LL_DevConnected) for USBD_LL_DevConnected
    lto-llvm-af9222.o(.ARM.exidx.text.HAL_PCD_ConnectCallback) refers to lto-llvm-af9222.o(.text.HAL_PCD_ConnectCallback) for [Anonymous Symbol]
    lto-llvm-af9222.o(.text.HAL_PCD_DisconnectCallback) refers to lto-llvm-af9222.o(.text.USBD_LL_DevDisconnected) for USBD_LL_DevDisconnected
    lto-llvm-af9222.o(.ARM.exidx.text.HAL_PCD_DisconnectCallback) refers to lto-llvm-af9222.o(.text.HAL_PCD_DisconnectCallback) for [Anonymous Symbol]
    lto-llvm-af9222.o(.text.USBD_LL_Init) refers to lto-llvm-af9222.o(.bss.hpcd_USB_OTG_FS) for hpcd_USB_OTG_FS
    lto-llvm-af9222.o(.text.USBD_LL_Init) refers to lto-llvm-af9222.o(.text.HAL_PCD_Init) for HAL_PCD_Init
    lto-llvm-af9222.o(.text.USBD_LL_Init) refers to lto-llvm-af9222.o(.text.HAL_PCDEx_SetRxFiFo) for HAL_PCDEx_SetRxFiFo
    lto-llvm-af9222.o(.text.USBD_LL_Init) refers to lto-llvm-af9222.o(.text.HAL_PCDEx_SetTxFiFo) for HAL_PCDEx_SetTxFiFo
    lto-llvm-af9222.o(.ARM.exidx.text.USBD_LL_Init) refers to lto-llvm-af9222.o(.text.USBD_LL_Init) for [Anonymous Symbol]
    lto-llvm-af9222.o(.ARM.exidx.text.USBD_Get_USB_Status) refers to lto-llvm-af9222.o(.text.USBD_Get_USB_Status) for [Anonymous Symbol]
    lto-llvm-af9222.o(.text.USBD_LL_Start) refers to lto-llvm-af9222.o(.text.HAL_PCD_Start) for HAL_PCD_Start
    lto-llvm-af9222.o(.text.USBD_LL_Start) refers to lto-llvm-af9222.o(.text.USBD_Get_USB_Status) for USBD_Get_USB_Status
    lto-llvm-af9222.o(.ARM.exidx.text.USBD_LL_Start) refers to lto-llvm-af9222.o(.text.USBD_LL_Start) for [Anonymous Symbol]
    lto-llvm-af9222.o(.text.USBD_LL_OpenEP) refers to lto-llvm-af9222.o(.text.HAL_PCD_EP_Open) for HAL_PCD_EP_Open
    lto-llvm-af9222.o(.text.USBD_LL_OpenEP) refers to lto-llvm-af9222.o(.text.USBD_Get_USB_Status) for USBD_Get_USB_Status
    lto-llvm-af9222.o(.ARM.exidx.text.USBD_LL_OpenEP) refers to lto-llvm-af9222.o(.text.USBD_LL_OpenEP) for [Anonymous Symbol]
    lto-llvm-af9222.o(.text.USBD_LL_CloseEP) refers to lto-llvm-af9222.o(.text.HAL_PCD_EP_Close) for HAL_PCD_EP_Close
    lto-llvm-af9222.o(.text.USBD_LL_CloseEP) refers to lto-llvm-af9222.o(.text.USBD_Get_USB_Status) for USBD_Get_USB_Status
    lto-llvm-af9222.o(.ARM.exidx.text.USBD_LL_CloseEP) refers to lto-llvm-af9222.o(.text.USBD_LL_CloseEP) for [Anonymous Symbol]
    lto-llvm-af9222.o(.text.USBD_LL_StallEP) refers to lto-llvm-af9222.o(.text.HAL_PCD_EP_SetStall) for HAL_PCD_EP_SetStall
    lto-llvm-af9222.o(.text.USBD_LL_StallEP) refers to lto-llvm-af9222.o(.text.USBD_Get_USB_Status) for USBD_Get_USB_Status
    lto-llvm-af9222.o(.ARM.exidx.text.USBD_LL_StallEP) refers to lto-llvm-af9222.o(.text.USBD_LL_StallEP) for [Anonymous Symbol]
    lto-llvm-af9222.o(.text.USBD_LL_ClearStallEP) refers to lto-llvm-af9222.o(.text.HAL_PCD_EP_ClrStall) for HAL_PCD_EP_ClrStall
    lto-llvm-af9222.o(.text.USBD_LL_ClearStallEP) refers to lto-llvm-af9222.o(.text.USBD_Get_USB_Status) for USBD_Get_USB_Status
    lto-llvm-af9222.o(.ARM.exidx.text.USBD_LL_ClearStallEP) refers to lto-llvm-af9222.o(.text.USBD_LL_ClearStallEP) for [Anonymous Symbol]
    lto-llvm-af9222.o(.ARM.exidx.text.USBD_LL_IsStallEP) refers to lto-llvm-af9222.o(.text.USBD_LL_IsStallEP) for [Anonymous Symbol]
    lto-llvm-af9222.o(.text.USBD_LL_SetUSBAddress) refers to lto-llvm-af9222.o(.text.HAL_PCD_SetAddress) for HAL_PCD_SetAddress
    lto-llvm-af9222.o(.text.USBD_LL_SetUSBAddress) refers to lto-llvm-af9222.o(.text.USBD_Get_USB_Status) for USBD_Get_USB_Status
    lto-llvm-af9222.o(.ARM.exidx.text.USBD_LL_SetUSBAddress) refers to lto-llvm-af9222.o(.text.USBD_LL_SetUSBAddress) for [Anonymous Symbol]
    lto-llvm-af9222.o(.text.USBD_LL_Transmit) refers to lto-llvm-af9222.o(.text.HAL_PCD_EP_Transmit) for HAL_PCD_EP_Transmit
    lto-llvm-af9222.o(.text.USBD_LL_Transmit) refers to lto-llvm-af9222.o(.text.USBD_Get_USB_Status) for USBD_Get_USB_Status
    lto-llvm-af9222.o(.ARM.exidx.text.USBD_LL_Transmit) refers to lto-llvm-af9222.o(.text.USBD_LL_Transmit) for [Anonymous Symbol]
    lto-llvm-af9222.o(.text.USBD_LL_PrepareReceive) refers to lto-llvm-af9222.o(.text.HAL_PCD_EP_Receive) for HAL_PCD_EP_Receive
    lto-llvm-af9222.o(.text.USBD_LL_PrepareReceive) refers to lto-llvm-af9222.o(.text.USBD_Get_USB_Status) for USBD_Get_USB_Status
    lto-llvm-af9222.o(.ARM.exidx.text.USBD_LL_PrepareReceive) refers to lto-llvm-af9222.o(.text.USBD_LL_PrepareReceive) for [Anonymous Symbol]
    lto-llvm-af9222.o(.text.USBD_LL_GetRxDataSize) refers to lto-llvm-af9222.o(.text.HAL_PCD_EP_GetRxCount) for HAL_PCD_EP_GetRxCount
    lto-llvm-af9222.o(.ARM.exidx.text.USBD_LL_GetRxDataSize) refers to lto-llvm-af9222.o(.text.USBD_LL_GetRxDataSize) for [Anonymous Symbol]
    lto-llvm-af9222.o(.text.USBD_FS_DeviceDescriptor) refers to lto-llvm-af9222.o(.data.USBD_FS_DeviceDesc) for USBD_FS_DeviceDesc
    lto-llvm-af9222.o(.ARM.exidx.text.USBD_FS_DeviceDescriptor) refers to lto-llvm-af9222.o(.text.USBD_FS_DeviceDescriptor) for [Anonymous Symbol]
    lto-llvm-af9222.o(.text.USBD_FS_LangIDStrDescriptor) refers to lto-llvm-af9222.o(.data.USBD_LangIDDesc) for USBD_LangIDDesc
    lto-llvm-af9222.o(.ARM.exidx.text.USBD_FS_LangIDStrDescriptor) refers to lto-llvm-af9222.o(.text.USBD_FS_LangIDStrDescriptor) for [Anonymous Symbol]
    lto-llvm-af9222.o(.text.USBD_FS_ManufacturerStrDescriptor) refers to lto-llvm-af9222.o(.rodata.str1.1) for .L.str.1
    lto-llvm-af9222.o(.text.USBD_FS_ManufacturerStrDescriptor) refers to lto-llvm-af9222.o(.text.USBD_GetString) for USBD_GetString
    lto-llvm-af9222.o(.text.USBD_FS_ManufacturerStrDescriptor) refers to lto-llvm-af9222.o(.bss.USBD_StrDesc) for USBD_StrDesc
    lto-llvm-af9222.o(.ARM.exidx.text.USBD_FS_ManufacturerStrDescriptor) refers to lto-llvm-af9222.o(.text.USBD_FS_ManufacturerStrDescriptor) for [Anonymous Symbol]
    lto-llvm-af9222.o(.text.USBD_FS_ProductStrDescriptor) refers to lto-llvm-af9222.o(.rodata.str1.1) for .L.str
    lto-llvm-af9222.o(.text.USBD_FS_ProductStrDescriptor) refers to lto-llvm-af9222.o(.text.USBD_GetString) for USBD_GetString
    lto-llvm-af9222.o(.text.USBD_FS_ProductStrDescriptor) refers to lto-llvm-af9222.o(.bss.USBD_StrDesc) for USBD_StrDesc
    lto-llvm-af9222.o(.ARM.exidx.text.USBD_FS_ProductStrDescriptor) refers to lto-llvm-af9222.o(.text.USBD_FS_ProductStrDescriptor) for [Anonymous Symbol]
    lto-llvm-af9222.o(.text.USBD_FS_SerialStrDescriptor) refers to lto-llvm-af9222.o(.text.Get_SerialNum) for Get_SerialNum
    lto-llvm-af9222.o(.text.USBD_FS_SerialStrDescriptor) refers to lto-llvm-af9222.o(.data.USBD_StringSerial) for USBD_StringSerial
    lto-llvm-af9222.o(.ARM.exidx.text.USBD_FS_SerialStrDescriptor) refers to lto-llvm-af9222.o(.text.USBD_FS_SerialStrDescriptor) for [Anonymous Symbol]
    lto-llvm-af9222.o(.text.USBD_FS_ConfigStrDescriptor) refers to lto-llvm-af9222.o(.rodata.str1.1) for .L.str.2
    lto-llvm-af9222.o(.text.USBD_FS_ConfigStrDescriptor) refers to lto-llvm-af9222.o(.text.USBD_GetString) for USBD_GetString
    lto-llvm-af9222.o(.text.USBD_FS_ConfigStrDescriptor) refers to lto-llvm-af9222.o(.bss.USBD_StrDesc) for USBD_StrDesc
    lto-llvm-af9222.o(.ARM.exidx.text.USBD_FS_ConfigStrDescriptor) refers to lto-llvm-af9222.o(.text.USBD_FS_ConfigStrDescriptor) for [Anonymous Symbol]
    lto-llvm-af9222.o(.text.USBD_FS_InterfaceStrDescriptor) refers to lto-llvm-af9222.o(.rodata.str1.1) for .L.str.3
    lto-llvm-af9222.o(.text.USBD_FS_InterfaceStrDescriptor) refers to lto-llvm-af9222.o(.text.USBD_GetString) for USBD_GetString
    lto-llvm-af9222.o(.text.USBD_FS_InterfaceStrDescriptor) refers to lto-llvm-af9222.o(.bss.USBD_StrDesc) for USBD_StrDesc
    lto-llvm-af9222.o(.ARM.exidx.text.USBD_FS_InterfaceStrDescriptor) refers to lto-llvm-af9222.o(.text.USBD_FS_InterfaceStrDescriptor) for [Anonymous Symbol]
    lto-llvm-af9222.o(.text.Get_SerialNum) refers to lto-llvm-af9222.o(.data.USBD_StringSerial) for USBD_StringSerial
    lto-llvm-af9222.o(.text.Get_SerialNum) refers to lto-llvm-af9222.o(.text.IntToUnicode) for IntToUnicode
    lto-llvm-af9222.o(.ARM.exidx.text.Get_SerialNum) refers to lto-llvm-af9222.o(.text.Get_SerialNum) for [Anonymous Symbol]
    lto-llvm-af9222.o(.ARM.exidx.text.IntToUnicode) refers to lto-llvm-af9222.o(.text.IntToUnicode) for [Anonymous Symbol]
    lto-llvm-af9222.o(.text.HAL_TIM_Base_Init) refers to lto-llvm-af9222.o(.text.HAL_TIM_Base_MspInit) for HAL_TIM_Base_MspInit
    lto-llvm-af9222.o(.text.HAL_TIM_Base_Init) refers to lto-llvm-af9222.o(.text.TIM_Base_SetConfig) for TIM_Base_SetConfig
    lto-llvm-af9222.o(.ARM.exidx.text.HAL_TIM_Base_Init) refers to lto-llvm-af9222.o(.text.HAL_TIM_Base_Init) for [Anonymous Symbol]
    lto-llvm-af9222.o(.ARM.exidx.text.TIM_Base_SetConfig) refers to lto-llvm-af9222.o(.text.TIM_Base_SetConfig) for [Anonymous Symbol]
    lto-llvm-af9222.o(.ARM.exidx.text.HAL_TIM_Base_Start_IT) refers to lto-llvm-af9222.o(.text.HAL_TIM_Base_Start_IT) for [Anonymous Symbol]
    lto-llvm-af9222.o(.ARM.exidx.text.TIM_CCxChannelCmd) refers to lto-llvm-af9222.o(.text.TIM_CCxChannelCmd) for [Anonymous Symbol]
    lto-llvm-af9222.o(.ARM.exidx.text.HAL_TIM_PWM_PulseFinishedCallback) refers to lto-llvm-af9222.o(.text.HAL_TIM_PWM_PulseFinishedCallback) for [Anonymous Symbol]
    lto-llvm-af9222.o(.text.HAL_TIM_PWM_Init) refers to lto-llvm-af9222.o(.text.HAL_TIM_PWM_MspInit) for HAL_TIM_PWM_MspInit
    lto-llvm-af9222.o(.text.HAL_TIM_PWM_Init) refers to lto-llvm-af9222.o(.text.TIM_Base_SetConfig) for TIM_Base_SetConfig
    lto-llvm-af9222.o(.ARM.exidx.text.HAL_TIM_PWM_Init) refers to lto-llvm-af9222.o(.text.HAL_TIM_PWM_Init) for [Anonymous Symbol]
    lto-llvm-af9222.o(.ARM.exidx.text.HAL_TIM_PWM_MspInit) refers to lto-llvm-af9222.o(.text.HAL_TIM_PWM_MspInit) for [Anonymous Symbol]
    lto-llvm-af9222.o(.text.HAL_TIM_PWM_Start) refers to lto-llvm-af9222.o(.text.TIM_CCxChannelCmd) for TIM_CCxChannelCmd
    lto-llvm-af9222.o(.ARM.exidx.text.HAL_TIM_PWM_Start) refers to lto-llvm-af9222.o(.text.HAL_TIM_PWM_Start) for [Anonymous Symbol]
    lto-llvm-af9222.o(.text.HAL_TIM_PWM_Stop) refers to lto-llvm-af9222.o(.text.TIM_CCxChannelCmd) for TIM_CCxChannelCmd
    lto-llvm-af9222.o(.ARM.exidx.text.HAL_TIM_PWM_Stop) refers to lto-llvm-af9222.o(.text.HAL_TIM_PWM_Stop) for [Anonymous Symbol]
    lto-llvm-af9222.o(.ARM.exidx.text.HAL_TIM_IC_CaptureCallback) refers to lto-llvm-af9222.o(.text.HAL_TIM_IC_CaptureCallback) for [Anonymous Symbol]
    lto-llvm-af9222.o(.text.HAL_TIM_IRQHandler) refers to lto-llvm-af9222.o(.text.HAL_TIM_IC_CaptureCallback) for HAL_TIM_IC_CaptureCallback
    lto-llvm-af9222.o(.text.HAL_TIM_IRQHandler) refers to lto-llvm-af9222.o(.text.HAL_TIM_OC_DelayElapsedCallback) for HAL_TIM_OC_DelayElapsedCallback
    lto-llvm-af9222.o(.text.HAL_TIM_IRQHandler) refers to lto-llvm-af9222.o(.text.HAL_TIM_PWM_PulseFinishedCallback) for HAL_TIM_PWM_PulseFinishedCallback
    lto-llvm-af9222.o(.text.HAL_TIM_IRQHandler) refers to lto-llvm-af9222.o(.text.HAL_TIM_PeriodElapsedCallback) for HAL_TIM_PeriodElapsedCallback
    lto-llvm-af9222.o(.text.HAL_TIM_IRQHandler) refers to lto-llvm-af9222.o(.text.HAL_TIMEx_BreakCallback) for HAL_TIMEx_BreakCallback
    lto-llvm-af9222.o(.text.HAL_TIM_IRQHandler) refers to lto-llvm-af9222.o(.text.HAL_TIM_TriggerCallback) for HAL_TIM_TriggerCallback
    lto-llvm-af9222.o(.text.HAL_TIM_IRQHandler) refers to lto-llvm-af9222.o(.text.HAL_TIMEx_CommutCallback) for HAL_TIMEx_CommutCallback
    lto-llvm-af9222.o(.ARM.exidx.text.HAL_TIM_IRQHandler) refers to lto-llvm-af9222.o(.text.HAL_TIM_IRQHandler) for [Anonymous Symbol]
    lto-llvm-af9222.o(.ARM.exidx.text.HAL_TIM_OC_DelayElapsedCallback) refers to lto-llvm-af9222.o(.text.HAL_TIM_OC_DelayElapsedCallback) for [Anonymous Symbol]
    lto-llvm-af9222.o(.ARM.exidx.text.HAL_TIM_TriggerCallback) refers to lto-llvm-af9222.o(.text.HAL_TIM_TriggerCallback) for [Anonymous Symbol]
    lto-llvm-af9222.o(.ARM.exidx.text.TIM_OC1_SetConfig) refers to lto-llvm-af9222.o(.text.TIM_OC1_SetConfig) for [Anonymous Symbol]
    lto-llvm-af9222.o(.ARM.exidx.text.TIM_OC2_SetConfig) refers to lto-llvm-af9222.o(.text.TIM_OC2_SetConfig) for [Anonymous Symbol]
    lto-llvm-af9222.o(.ARM.exidx.text.TIM_OC3_SetConfig) refers to lto-llvm-af9222.o(.text.TIM_OC3_SetConfig) for [Anonymous Symbol]
    lto-llvm-af9222.o(.ARM.exidx.text.TIM_OC4_SetConfig) refers to lto-llvm-af9222.o(.text.TIM_OC4_SetConfig) for [Anonymous Symbol]
    lto-llvm-af9222.o(.text.HAL_TIM_PWM_ConfigChannel) refers to lto-llvm-af9222.o(.text.TIM_OC1_SetConfig) for TIM_OC1_SetConfig
    lto-llvm-af9222.o(.text.HAL_TIM_PWM_ConfigChannel) refers to lto-llvm-af9222.o(.text.TIM_OC2_SetConfig) for TIM_OC2_SetConfig
    lto-llvm-af9222.o(.text.HAL_TIM_PWM_ConfigChannel) refers to lto-llvm-af9222.o(.text.TIM_OC3_SetConfig) for TIM_OC3_SetConfig
    lto-llvm-af9222.o(.text.HAL_TIM_PWM_ConfigChannel) refers to lto-llvm-af9222.o(.text.TIM_OC4_SetConfig) for TIM_OC4_SetConfig
    lto-llvm-af9222.o(.ARM.exidx.text.HAL_TIM_PWM_ConfigChannel) refers to lto-llvm-af9222.o(.text.HAL_TIM_PWM_ConfigChannel) for [Anonymous Symbol]
    lto-llvm-af9222.o(.ARM.exidx.text.TIM_ETR_SetConfig) refers to lto-llvm-af9222.o(.text.TIM_ETR_SetConfig) for [Anonymous Symbol]
    lto-llvm-af9222.o(.text.HAL_TIM_ConfigClockSource) refers to lto-llvm-af9222.o(.text.TIM_ETR_SetConfig) for TIM_ETR_SetConfig
    lto-llvm-af9222.o(.text.HAL_TIM_ConfigClockSource) refers to lto-llvm-af9222.o(.text.TIM_TI1_ConfigInputStage) for TIM_TI1_ConfigInputStage
    lto-llvm-af9222.o(.text.HAL_TIM_ConfigClockSource) refers to lto-llvm-af9222.o(.text.TIM_ITRx_SetConfig) for TIM_ITRx_SetConfig
    lto-llvm-af9222.o(.text.HAL_TIM_ConfigClockSource) refers to lto-llvm-af9222.o(.text.TIM_TI2_ConfigInputStage) for TIM_TI2_ConfigInputStage
    lto-llvm-af9222.o(.ARM.exidx.text.HAL_TIM_ConfigClockSource) refers to lto-llvm-af9222.o(.text.HAL_TIM_ConfigClockSource) for [Anonymous Symbol]
    lto-llvm-af9222.o(.ARM.exidx.text.TIM_TI1_ConfigInputStage) refers to lto-llvm-af9222.o(.text.TIM_TI1_ConfigInputStage) for [Anonymous Symbol]
    lto-llvm-af9222.o(.ARM.exidx.text.TIM_ITRx_SetConfig) refers to lto-llvm-af9222.o(.text.TIM_ITRx_SetConfig) for [Anonymous Symbol]
    lto-llvm-af9222.o(.ARM.exidx.text.TIM_TI2_ConfigInputStage) refers to lto-llvm-af9222.o(.text.TIM_TI2_ConfigInputStage) for [Anonymous Symbol]
    lto-llvm-af9222.o(.ARM.exidx.text.HAL_TIMEx_CommutCallback) refers to lto-llvm-af9222.o(.text.HAL_TIMEx_CommutCallback) for [Anonymous Symbol]
    lto-llvm-af9222.o(.ARM.exidx.text.HAL_TIMEx_MasterConfigSynchronization) refers to lto-llvm-af9222.o(.text.HAL_TIMEx_MasterConfigSynchronization) for [Anonymous Symbol]
    lto-llvm-af9222.o(.ARM.exidx.text.HAL_TIMEx_ConfigBreakDeadTime) refers to lto-llvm-af9222.o(.text.HAL_TIMEx_ConfigBreakDeadTime) for [Anonymous Symbol]
    lto-llvm-af9222.o(.ARM.exidx.text.HAL_TIMEx_BreakCallback) refers to lto-llvm-af9222.o(.text.HAL_TIMEx_BreakCallback) for [Anonymous Symbol]
    lto-llvm-af9222.o(.text.HAL_RCC_OscConfig) refers to lto-llvm-af9222.o(.text.HAL_GetTick) for HAL_GetTick
    lto-llvm-af9222.o(.ARM.exidx.text.HAL_RCC_OscConfig) refers to lto-llvm-af9222.o(.text.HAL_RCC_OscConfig) for [Anonymous Symbol]
    lto-llvm-af9222.o(.text.HAL_RCC_ClockConfig) refers to lto-llvm-af9222.o(.text.HAL_GetTick) for HAL_GetTick
    lto-llvm-af9222.o(.text.HAL_RCC_ClockConfig) refers to lto-llvm-af9222.o(.text.HAL_RCC_GetSysClockFreq) for HAL_RCC_GetSysClockFreq
    lto-llvm-af9222.o(.text.HAL_RCC_ClockConfig) refers to lto-llvm-af9222.o(.rodata.cst16) for AHBPrescTable
    lto-llvm-af9222.o(.text.HAL_RCC_ClockConfig) refers to lto-llvm-af9222.o(.data.SystemCoreClock) for SystemCoreClock
    lto-llvm-af9222.o(.text.HAL_RCC_ClockConfig) refers to lto-llvm-af9222.o(.data.uwTickPrio) for uwTickPrio
    lto-llvm-af9222.o(.text.HAL_RCC_ClockConfig) refers to lto-llvm-af9222.o(.text.HAL_InitTick) for HAL_InitTick
    lto-llvm-af9222.o(.ARM.exidx.text.HAL_RCC_ClockConfig) refers to lto-llvm-af9222.o(.text.HAL_RCC_ClockConfig) for [Anonymous Symbol]
    lto-llvm-af9222.o(.text.HAL_RCC_GetSysClockFreq) refers to uldiv.o(.text) for __aeabi_uldivmod
    lto-llvm-af9222.o(.ARM.exidx.text.HAL_RCC_GetSysClockFreq) refers to lto-llvm-af9222.o(.text.HAL_RCC_GetSysClockFreq) for [Anonymous Symbol]
    lto-llvm-af9222.o(.text.HAL_RCC_GetHCLKFreq) refers to lto-llvm-af9222.o(.data.SystemCoreClock) for SystemCoreClock
    lto-llvm-af9222.o(.ARM.exidx.text.HAL_RCC_GetHCLKFreq) refers to lto-llvm-af9222.o(.text.HAL_RCC_GetHCLKFreq) for [Anonymous Symbol]
    lto-llvm-af9222.o(.text.HAL_RCC_GetPCLK1Freq) refers to lto-llvm-af9222.o(.text.HAL_RCC_GetHCLKFreq) for HAL_RCC_GetHCLKFreq
    lto-llvm-af9222.o(.text.HAL_RCC_GetPCLK1Freq) refers to lto-llvm-af9222.o(.rodata.cst8) for APBPrescTable
    lto-llvm-af9222.o(.ARM.exidx.text.HAL_RCC_GetPCLK1Freq) refers to lto-llvm-af9222.o(.text.HAL_RCC_GetPCLK1Freq) for [Anonymous Symbol]
    lto-llvm-af9222.o(.text.HAL_RCC_GetPCLK2Freq) refers to lto-llvm-af9222.o(.text.HAL_RCC_GetHCLKFreq) for HAL_RCC_GetHCLKFreq
    lto-llvm-af9222.o(.text.HAL_RCC_GetPCLK2Freq) refers to lto-llvm-af9222.o(.rodata.cst8) for APBPrescTable
    lto-llvm-af9222.o(.ARM.exidx.text.HAL_RCC_GetPCLK2Freq) refers to lto-llvm-af9222.o(.text.HAL_RCC_GetPCLK2Freq) for [Anonymous Symbol]
    lto-llvm-af9222.o(.ARM.exidx.text.HAL_GPIO_Init) refers to lto-llvm-af9222.o(.text.HAL_GPIO_Init) for [Anonymous Symbol]
    lto-llvm-af9222.o(.ARM.exidx.text.HAL_GPIO_ReadPin) refers to lto-llvm-af9222.o(.text.HAL_GPIO_ReadPin) for [Anonymous Symbol]
    lto-llvm-af9222.o(.ARM.exidx.text.HAL_GPIO_WritePin) refers to lto-llvm-af9222.o(.text.HAL_GPIO_WritePin) for [Anonymous Symbol]
    lto-llvm-af9222.o(.text.HAL_GPIO_EXTI_IRQHandler) refers to lto-llvm-af9222.o(.text.HAL_GPIO_EXTI_Callback) for HAL_GPIO_EXTI_Callback
    lto-llvm-af9222.o(.ARM.exidx.text.HAL_GPIO_EXTI_IRQHandler) refers to lto-llvm-af9222.o(.text.HAL_GPIO_EXTI_IRQHandler) for [Anonymous Symbol]
    lto-llvm-af9222.o(.text.HAL_DMA_Init) refers to lto-llvm-af9222.o(.text.HAL_GetTick) for HAL_GetTick
    lto-llvm-af9222.o(.text.HAL_DMA_Init) refers to lto-llvm-af9222.o(.text.DMA_CheckFifoParam) for DMA_CheckFifoParam
    lto-llvm-af9222.o(.text.HAL_DMA_Init) refers to lto-llvm-af9222.o(.text.DMA_CalcBaseAndBitshift) for DMA_CalcBaseAndBitshift
    lto-llvm-af9222.o(.ARM.exidx.text.HAL_DMA_Init) refers to lto-llvm-af9222.o(.text.HAL_DMA_Init) for [Anonymous Symbol]
    lto-llvm-af9222.o(.ARM.exidx.text.DMA_CheckFifoParam) refers to lto-llvm-af9222.o(.text.DMA_CheckFifoParam) for [Anonymous Symbol]
    lto-llvm-af9222.o(.text.DMA_CalcBaseAndBitshift) refers to lto-llvm-af9222.o(.rodata.cst8) for DMA_CalcBaseAndBitshift.flagBitshiftOffset
    lto-llvm-af9222.o(.ARM.exidx.text.DMA_CalcBaseAndBitshift) refers to lto-llvm-af9222.o(.text.DMA_CalcBaseAndBitshift) for [Anonymous Symbol]
    lto-llvm-af9222.o(.ARM.exidx.text.HAL_DMA_Abort_IT) refers to lto-llvm-af9222.o(.text.HAL_DMA_Abort_IT) for [Anonymous Symbol]
    lto-llvm-af9222.o(.text.HAL_DMA_IRQHandler) refers to lto-llvm-af9222.o(.data.SystemCoreClock) for SystemCoreClock
    lto-llvm-af9222.o(.ARM.exidx.text.HAL_DMA_IRQHandler) refers to lto-llvm-af9222.o(.text.HAL_DMA_IRQHandler) for [Anonymous Symbol]
    lto-llvm-af9222.o(.text.HAL_NVIC_SetPriorityGrouping) refers to lto-llvm-af9222.o(.text.__NVIC_SetPriorityGrouping) for __NVIC_SetPriorityGrouping
    lto-llvm-af9222.o(.ARM.exidx.text.HAL_NVIC_SetPriorityGrouping) refers to lto-llvm-af9222.o(.text.HAL_NVIC_SetPriorityGrouping) for [Anonymous Symbol]
    lto-llvm-af9222.o(.ARM.exidx.text.__NVIC_SetPriorityGrouping) refers to lto-llvm-af9222.o(.text.__NVIC_SetPriorityGrouping) for [Anonymous Symbol]
    lto-llvm-af9222.o(.text.HAL_NVIC_SetPriority) refers to lto-llvm-af9222.o(.text.__NVIC_GetPriorityGrouping) for __NVIC_GetPriorityGrouping
    lto-llvm-af9222.o(.text.HAL_NVIC_SetPriority) refers to lto-llvm-af9222.o(.text.NVIC_EncodePriority) for NVIC_EncodePriority
    lto-llvm-af9222.o(.text.HAL_NVIC_SetPriority) refers to lto-llvm-af9222.o(.text.__NVIC_SetPriority) for __NVIC_SetPriority
    lto-llvm-af9222.o(.ARM.exidx.text.HAL_NVIC_SetPriority) refers to lto-llvm-af9222.o(.text.HAL_NVIC_SetPriority) for [Anonymous Symbol]
    lto-llvm-af9222.o(.ARM.exidx.text.__NVIC_GetPriorityGrouping) refers to lto-llvm-af9222.o(.text.__NVIC_GetPriorityGrouping) for [Anonymous Symbol]
    lto-llvm-af9222.o(.ARM.exidx.text.NVIC_EncodePriority) refers to lto-llvm-af9222.o(.text.NVIC_EncodePriority) for [Anonymous Symbol]
    lto-llvm-af9222.o(.ARM.exidx.text.__NVIC_SetPriority) refers to lto-llvm-af9222.o(.text.__NVIC_SetPriority) for [Anonymous Symbol]
    lto-llvm-af9222.o(.text.HAL_NVIC_EnableIRQ) refers to lto-llvm-af9222.o(.text.__NVIC_EnableIRQ) for __NVIC_EnableIRQ
    lto-llvm-af9222.o(.ARM.exidx.text.HAL_NVIC_EnableIRQ) refers to lto-llvm-af9222.o(.text.HAL_NVIC_EnableIRQ) for [Anonymous Symbol]
    lto-llvm-af9222.o(.ARM.exidx.text.__NVIC_EnableIRQ) refers to lto-llvm-af9222.o(.text.__NVIC_EnableIRQ) for [Anonymous Symbol]
    lto-llvm-af9222.o(.text.HAL_SYSTICK_Config) refers to lto-llvm-af9222.o(.text.SysTick_Config) for SysTick_Config
    lto-llvm-af9222.o(.ARM.exidx.text.HAL_SYSTICK_Config) refers to lto-llvm-af9222.o(.text.HAL_SYSTICK_Config) for [Anonymous Symbol]
    lto-llvm-af9222.o(.text.SysTick_Config) refers to lto-llvm-af9222.o(.text.__NVIC_SetPriority) for __NVIC_SetPriority
    lto-llvm-af9222.o(.ARM.exidx.text.SysTick_Config) refers to lto-llvm-af9222.o(.text.SysTick_Config) for [Anonymous Symbol]
    lto-llvm-af9222.o(.text.HAL_Init) refers to lto-llvm-af9222.o(.text.HAL_NVIC_SetPriorityGrouping) for HAL_NVIC_SetPriorityGrouping
    lto-llvm-af9222.o(.text.HAL_Init) refers to lto-llvm-af9222.o(.text.HAL_InitTick) for HAL_InitTick
    lto-llvm-af9222.o(.text.HAL_Init) refers to lto-llvm-af9222.o(.text.HAL_MspInit) for HAL_MspInit
    lto-llvm-af9222.o(.ARM.exidx.text.HAL_Init) refers to lto-llvm-af9222.o(.text.HAL_Init) for [Anonymous Symbol]
    lto-llvm-af9222.o(.text.HAL_InitTick) refers to lto-llvm-af9222.o(.data.SystemCoreClock) for SystemCoreClock
    lto-llvm-af9222.o(.text.HAL_InitTick) refers to lto-llvm-af9222.o(.text.HAL_SYSTICK_Config) for HAL_SYSTICK_Config
    lto-llvm-af9222.o(.text.HAL_InitTick) refers to lto-llvm-af9222.o(.text.HAL_NVIC_SetPriority) for HAL_NVIC_SetPriority
    lto-llvm-af9222.o(.text.HAL_InitTick) refers to lto-llvm-af9222.o(.data.uwTickPrio) for uwTickPrio
    lto-llvm-af9222.o(.ARM.exidx.text.HAL_InitTick) refers to lto-llvm-af9222.o(.text.HAL_InitTick) for [Anonymous Symbol]
    lto-llvm-af9222.o(.text.HAL_IncTick) refers to lto-llvm-af9222.o(.bss.uwTick) for uwTick
    lto-llvm-af9222.o(.ARM.exidx.text.HAL_IncTick) refers to lto-llvm-af9222.o(.text.HAL_IncTick) for [Anonymous Symbol]
    lto-llvm-af9222.o(.text.HAL_GetTick) refers to lto-llvm-af9222.o(.bss.uwTick) for uwTick
    lto-llvm-af9222.o(.ARM.exidx.text.HAL_GetTick) refers to lto-llvm-af9222.o(.text.HAL_GetTick) for [Anonymous Symbol]
    lto-llvm-af9222.o(.text.HAL_Delay) refers to lto-llvm-af9222.o(.text.HAL_GetTick) for HAL_GetTick
    lto-llvm-af9222.o(.ARM.exidx.text.HAL_Delay) refers to lto-llvm-af9222.o(.text.HAL_Delay) for [Anonymous Symbol]
    lto-llvm-af9222.o(.text.HAL_ADC_Init) refers to lto-llvm-af9222.o(.text.HAL_ADC_MspInit) for HAL_ADC_MspInit
    lto-llvm-af9222.o(.text.HAL_ADC_Init) refers to lto-llvm-af9222.o(.text.ADC_Init) for ADC_Init
    lto-llvm-af9222.o(.ARM.exidx.text.HAL_ADC_Init) refers to lto-llvm-af9222.o(.text.HAL_ADC_Init) for [Anonymous Symbol]
    lto-llvm-af9222.o(.ARM.exidx.text.ADC_Init) refers to lto-llvm-af9222.o(.text.ADC_Init) for [Anonymous Symbol]
    lto-llvm-af9222.o(.text.HAL_ADC_Start) refers to lto-llvm-af9222.o(.data.SystemCoreClock) for SystemCoreClock
    lto-llvm-af9222.o(.ARM.exidx.text.HAL_ADC_Start) refers to lto-llvm-af9222.o(.text.HAL_ADC_Start) for [Anonymous Symbol]
    lto-llvm-af9222.o(.text.HAL_ADC_Stop) refers to lto-llvm-af9222.o(.bss.hadc1) for hadc1
    lto-llvm-af9222.o(.ARM.exidx.text.HAL_ADC_Stop) refers to lto-llvm-af9222.o(.text.HAL_ADC_Stop) for [Anonymous Symbol]
    lto-llvm-af9222.o(.text.HAL_ADC_PollForConversion) refers to lto-llvm-af9222.o(.text.HAL_GetTick) for HAL_GetTick
    lto-llvm-af9222.o(.ARM.exidx.text.HAL_ADC_PollForConversion) refers to lto-llvm-af9222.o(.text.HAL_ADC_PollForConversion) for [Anonymous Symbol]
    lto-llvm-af9222.o(.ARM.exidx.text.HAL_ADC_GetValue) refers to lto-llvm-af9222.o(.text.HAL_ADC_GetValue) for [Anonymous Symbol]
    lto-llvm-af9222.o(.text.HAL_ADC_ConfigChannel) refers to lto-llvm-af9222.o(.data.SystemCoreClock) for SystemCoreClock
    lto-llvm-af9222.o(.ARM.exidx.text.HAL_ADC_ConfigChannel) refers to lto-llvm-af9222.o(.text.HAL_ADC_ConfigChannel) for [Anonymous Symbol]
    lto-llvm-af9222.o(.text.HAL_UART_Init) refers to lto-llvm-af9222.o(.text.HAL_UART_MspInit) for HAL_UART_MspInit
    lto-llvm-af9222.o(.text.HAL_UART_Init) refers to lto-llvm-af9222.o(.text.UART_SetConfig) for UART_SetConfig
    lto-llvm-af9222.o(.ARM.exidx.text.HAL_UART_Init) refers to lto-llvm-af9222.o(.text.HAL_UART_Init) for [Anonymous Symbol]
    lto-llvm-af9222.o(.text.UART_SetConfig) refers to lto-llvm-af9222.o(.text.HAL_RCC_GetPCLK2Freq) for HAL_RCC_GetPCLK2Freq
    lto-llvm-af9222.o(.text.UART_SetConfig) refers to uldiv.o(.text) for __aeabi_uldivmod
    lto-llvm-af9222.o(.text.UART_SetConfig) refers to lto-llvm-af9222.o(.text.HAL_RCC_GetPCLK1Freq) for HAL_RCC_GetPCLK1Freq
    lto-llvm-af9222.o(.ARM.exidx.text.UART_SetConfig) refers to lto-llvm-af9222.o(.text.UART_SetConfig) for [Anonymous Symbol]
    lto-llvm-af9222.o(.ARM.exidx.text.UART_EndRxTransfer) refers to lto-llvm-af9222.o(.text.UART_EndRxTransfer) for [Anonymous Symbol]
    lto-llvm-af9222.o(.ARM.exidx.text.HAL_UART_ErrorCallback) refers to lto-llvm-af9222.o(.text.HAL_UART_ErrorCallback) for [Anonymous Symbol]
    lto-llvm-af9222.o(.ARM.exidx.text.HAL_UART_TxCpltCallback) refers to lto-llvm-af9222.o(.text.HAL_UART_TxCpltCallback) for [Anonymous Symbol]
    lto-llvm-af9222.o(.ARM.exidx.text.HAL_UART_RxCpltCallback) refers to lto-llvm-af9222.o(.text.HAL_UART_RxCpltCallback) for [Anonymous Symbol]
    lto-llvm-af9222.o(.text.HAL_UART_IRQHandler) refers to lto-llvm-af9222.o(.text.UART_Receive_IT) for UART_Receive_IT
    lto-llvm-af9222.o(.text.HAL_UART_IRQHandler) refers to lto-llvm-af9222.o(.text.UART_EndRxTransfer) for UART_EndRxTransfer
    lto-llvm-af9222.o(.text.HAL_UART_IRQHandler) refers to lto-llvm-af9222.o(.text.UART_DMAAbortOnError) for UART_DMAAbortOnError
    lto-llvm-af9222.o(.text.HAL_UART_IRQHandler) refers to lto-llvm-af9222.o(.text.HAL_DMA_Abort_IT) for HAL_DMA_Abort_IT
    lto-llvm-af9222.o(.text.HAL_UART_IRQHandler) refers to lto-llvm-af9222.o(.text.HAL_UART_ErrorCallback) for HAL_UART_ErrorCallback
    lto-llvm-af9222.o(.text.HAL_UART_IRQHandler) refers to lto-llvm-af9222.o(.text.UART_Transmit_IT) for UART_Transmit_IT
    lto-llvm-af9222.o(.text.HAL_UART_IRQHandler) refers to lto-llvm-af9222.o(.text.UART_EndTransmit_IT) for UART_EndTransmit_IT
    lto-llvm-af9222.o(.ARM.exidx.text.HAL_UART_IRQHandler) refers to lto-llvm-af9222.o(.text.HAL_UART_IRQHandler) for [Anonymous Symbol]
    lto-llvm-af9222.o(.text.UART_Receive_IT) refers to lto-llvm-af9222.o(.text.HAL_UART_RxCpltCallback) for HAL_UART_RxCpltCallback
    lto-llvm-af9222.o(.ARM.exidx.text.UART_Receive_IT) refers to lto-llvm-af9222.o(.text.UART_Receive_IT) for [Anonymous Symbol]
    lto-llvm-af9222.o(.text.UART_DMAAbortOnError) refers to lto-llvm-af9222.o(.text.HAL_UART_ErrorCallback) for HAL_UART_ErrorCallback
    lto-llvm-af9222.o(.ARM.exidx.text.UART_DMAAbortOnError) refers to lto-llvm-af9222.o(.text.UART_DMAAbortOnError) for [Anonymous Symbol]
    lto-llvm-af9222.o(.ARM.exidx.text.UART_Transmit_IT) refers to lto-llvm-af9222.o(.text.UART_Transmit_IT) for [Anonymous Symbol]
    lto-llvm-af9222.o(.text.UART_EndTransmit_IT) refers to lto-llvm-af9222.o(.text.HAL_UART_TxCpltCallback) for HAL_UART_TxCpltCallback
    lto-llvm-af9222.o(.ARM.exidx.text.UART_EndTransmit_IT) refers to lto-llvm-af9222.o(.text.UART_EndTransmit_IT) for [Anonymous Symbol]
    lto-llvm-af9222.o(.text.HAL_CAN_Init) refers to lto-llvm-af9222.o(.text.HAL_CAN_MspInit) for HAL_CAN_MspInit
    lto-llvm-af9222.o(.text.HAL_CAN_Init) refers to lto-llvm-af9222.o(.text.HAL_GetTick) for HAL_GetTick
    lto-llvm-af9222.o(.ARM.exidx.text.HAL_CAN_Init) refers to lto-llvm-af9222.o(.text.HAL_CAN_Init) for [Anonymous Symbol]
    lto-llvm-af9222.o(.ARM.exidx.text.HAL_CAN_ConfigFilter) refers to lto-llvm-af9222.o(.text.HAL_CAN_ConfigFilter) for [Anonymous Symbol]
    lto-llvm-af9222.o(.text.HAL_CAN_Start) refers to lto-llvm-af9222.o(.text.HAL_GetTick) for HAL_GetTick
    lto-llvm-af9222.o(.ARM.exidx.text.HAL_CAN_Start) refers to lto-llvm-af9222.o(.text.HAL_CAN_Start) for [Anonymous Symbol]
    lto-llvm-af9222.o(.ARM.exidx.text.HAL_CAN_AddTxMessage) refers to lto-llvm-af9222.o(.text.HAL_CAN_AddTxMessage) for [Anonymous Symbol]
    lto-llvm-af9222.o(.ARM.exidx.text.HAL_CAN_GetRxMessage) refers to lto-llvm-af9222.o(.text.HAL_CAN_GetRxMessage) for [Anonymous Symbol]
    lto-llvm-af9222.o(.ARM.exidx.text.HAL_CAN_ActivateNotification) refers to lto-llvm-af9222.o(.text.HAL_CAN_ActivateNotification) for [Anonymous Symbol]
    lto-llvm-af9222.o(.text.HAL_CAN_IRQHandler) refers to lto-llvm-af9222.o(.text.HAL_CAN_TxMailbox0CompleteCallback) for HAL_CAN_TxMailbox0CompleteCallback
    lto-llvm-af9222.o(.text.HAL_CAN_IRQHandler) refers to lto-llvm-af9222.o(.text.HAL_CAN_TxMailbox0AbortCallback) for HAL_CAN_TxMailbox0AbortCallback
    lto-llvm-af9222.o(.text.HAL_CAN_IRQHandler) refers to lto-llvm-af9222.o(.text.HAL_CAN_TxMailbox1CompleteCallback) for HAL_CAN_TxMailbox1CompleteCallback
    lto-llvm-af9222.o(.text.HAL_CAN_IRQHandler) refers to lto-llvm-af9222.o(.text.HAL_CAN_TxMailbox1AbortCallback) for HAL_CAN_TxMailbox1AbortCallback
    lto-llvm-af9222.o(.text.HAL_CAN_IRQHandler) refers to lto-llvm-af9222.o(.text.HAL_CAN_TxMailbox2CompleteCallback) for HAL_CAN_TxMailbox2CompleteCallback
    lto-llvm-af9222.o(.text.HAL_CAN_IRQHandler) refers to lto-llvm-af9222.o(.text.HAL_CAN_TxMailbox2AbortCallback) for HAL_CAN_TxMailbox2AbortCallback
    lto-llvm-af9222.o(.text.HAL_CAN_IRQHandler) refers to lto-llvm-af9222.o(.text.HAL_CAN_RxFifo0FullCallback) for HAL_CAN_RxFifo0FullCallback
    lto-llvm-af9222.o(.text.HAL_CAN_IRQHandler) refers to lto-llvm-af9222.o(.text.HAL_CAN_RxFifo0MsgPendingCallback) for HAL_CAN_RxFifo0MsgPendingCallback
    lto-llvm-af9222.o(.text.HAL_CAN_IRQHandler) refers to lto-llvm-af9222.o(.text.HAL_CAN_RxFifo1FullCallback) for HAL_CAN_RxFifo1FullCallback
    lto-llvm-af9222.o(.text.HAL_CAN_IRQHandler) refers to lto-llvm-af9222.o(.text.HAL_CAN_RxFifo1MsgPendingCallback) for HAL_CAN_RxFifo1MsgPendingCallback
    lto-llvm-af9222.o(.text.HAL_CAN_IRQHandler) refers to lto-llvm-af9222.o(.text.HAL_CAN_SleepCallback) for HAL_CAN_SleepCallback
    lto-llvm-af9222.o(.text.HAL_CAN_IRQHandler) refers to lto-llvm-af9222.o(.text.HAL_CAN_WakeUpFromRxMsgCallback) for HAL_CAN_WakeUpFromRxMsgCallback
    lto-llvm-af9222.o(.text.HAL_CAN_IRQHandler) refers to lto-llvm-af9222.o(.text.HAL_CAN_ErrorCallback) for HAL_CAN_ErrorCallback
    lto-llvm-af9222.o(.ARM.exidx.text.HAL_CAN_IRQHandler) refers to lto-llvm-af9222.o(.text.HAL_CAN_IRQHandler) for [Anonymous Symbol]
    lto-llvm-af9222.o(.ARM.exidx.text.HAL_CAN_TxMailbox0CompleteCallback) refers to lto-llvm-af9222.o(.text.HAL_CAN_TxMailbox0CompleteCallback) for [Anonymous Symbol]
    lto-llvm-af9222.o(.ARM.exidx.text.HAL_CAN_TxMailbox0AbortCallback) refers to lto-llvm-af9222.o(.text.HAL_CAN_TxMailbox0AbortCallback) for [Anonymous Symbol]
    lto-llvm-af9222.o(.ARM.exidx.text.HAL_CAN_TxMailbox1CompleteCallback) refers to lto-llvm-af9222.o(.text.HAL_CAN_TxMailbox1CompleteCallback) for [Anonymous Symbol]
    lto-llvm-af9222.o(.ARM.exidx.text.HAL_CAN_TxMailbox1AbortCallback) refers to lto-llvm-af9222.o(.text.HAL_CAN_TxMailbox1AbortCallback) for [Anonymous Symbol]
    lto-llvm-af9222.o(.ARM.exidx.text.HAL_CAN_TxMailbox2CompleteCallback) refers to lto-llvm-af9222.o(.text.HAL_CAN_TxMailbox2CompleteCallback) for [Anonymous Symbol]
    lto-llvm-af9222.o(.ARM.exidx.text.HAL_CAN_TxMailbox2AbortCallback) refers to lto-llvm-af9222.o(.text.HAL_CAN_TxMailbox2AbortCallback) for [Anonymous Symbol]
    lto-llvm-af9222.o(.ARM.exidx.text.HAL_CAN_RxFifo0FullCallback) refers to lto-llvm-af9222.o(.text.HAL_CAN_RxFifo0FullCallback) for [Anonymous Symbol]
    lto-llvm-af9222.o(.ARM.exidx.text.HAL_CAN_RxFifo1FullCallback) refers to lto-llvm-af9222.o(.text.HAL_CAN_RxFifo1FullCallback) for [Anonymous Symbol]
    lto-llvm-af9222.o(.ARM.exidx.text.HAL_CAN_RxFifo1MsgPendingCallback) refers to lto-llvm-af9222.o(.text.HAL_CAN_RxFifo1MsgPendingCallback) for [Anonymous Symbol]
    lto-llvm-af9222.o(.ARM.exidx.text.HAL_CAN_SleepCallback) refers to lto-llvm-af9222.o(.text.HAL_CAN_SleepCallback) for [Anonymous Symbol]
    lto-llvm-af9222.o(.ARM.exidx.text.HAL_CAN_WakeUpFromRxMsgCallback) refers to lto-llvm-af9222.o(.text.HAL_CAN_WakeUpFromRxMsgCallback) for [Anonymous Symbol]
    lto-llvm-af9222.o(.ARM.exidx.text.HAL_CAN_ErrorCallback) refers to lto-llvm-af9222.o(.text.HAL_CAN_ErrorCallback) for [Anonymous Symbol]
    lto-llvm-af9222.o(.text.HAL_I2C_Init) refers to lto-llvm-af9222.o(.bss.hi2c3) for hi2c3
    lto-llvm-af9222.o(.text.HAL_I2C_Init) refers to lto-llvm-af9222.o(.text.HAL_I2C_MspInit) for HAL_I2C_MspInit
    lto-llvm-af9222.o(.text.HAL_I2C_Init) refers to lto-llvm-af9222.o(.text.HAL_RCC_GetPCLK1Freq) for HAL_RCC_GetPCLK1Freq
    lto-llvm-af9222.o(.ARM.exidx.text.HAL_I2C_Init) refers to lto-llvm-af9222.o(.text.HAL_I2C_Init) for [Anonymous Symbol]
    lto-llvm-af9222.o(.text.HAL_SPI_Init) refers to lto-llvm-af9222.o(.text.HAL_SPI_MspInit) for HAL_SPI_MspInit
    lto-llvm-af9222.o(.ARM.exidx.text.HAL_SPI_Init) refers to lto-llvm-af9222.o(.text.HAL_SPI_Init) for [Anonymous Symbol]
    lto-llvm-af9222.o(.text.HAL_IWDG_Init) refers to lto-llvm-af9222.o(.bss.hiwdg) for hiwdg
    lto-llvm-af9222.o(.text.HAL_IWDG_Init) refers to lto-llvm-af9222.o(.text.HAL_GetTick) for HAL_GetTick
    lto-llvm-af9222.o(.ARM.exidx.text.HAL_IWDG_Init) refers to lto-llvm-af9222.o(.text.HAL_IWDG_Init) for [Anonymous Symbol]
    lto-llvm-af9222.o(.text.HAL_IWDG_Refresh) refers to lto-llvm-af9222.o(.bss.hiwdg) for hiwdg
    lto-llvm-af9222.o(.ARM.exidx.text.HAL_IWDG_Refresh) refers to lto-llvm-af9222.o(.text.HAL_IWDG_Refresh) for [Anonymous Symbol]
    lto-llvm-af9222.o(.text.HAL_PCD_Init) refers to lto-llvm-af9222.o(.bss.hpcd_USB_OTG_FS) for hpcd_USB_OTG_FS
    lto-llvm-af9222.o(.text.HAL_PCD_Init) refers to lto-llvm-af9222.o(.text.HAL_PCD_MspInit) for HAL_PCD_MspInit
    lto-llvm-af9222.o(.text.HAL_PCD_Init) refers to lto-llvm-af9222.o(.text.USB_DisableGlobalInt) for USB_DisableGlobalInt
    lto-llvm-af9222.o(.text.HAL_PCD_Init) refers to lto-llvm-af9222.o(.text.USB_CoreInit) for USB_CoreInit
    lto-llvm-af9222.o(.text.HAL_PCD_Init) refers to lto-llvm-af9222.o(.text.USB_SetCurrentMode) for USB_SetCurrentMode
    lto-llvm-af9222.o(.text.HAL_PCD_Init) refers to lto-llvm-af9222.o(.text.USB_DevInit) for USB_DevInit
    lto-llvm-af9222.o(.text.HAL_PCD_Init) refers to lto-llvm-af9222.o(.text.USB_DevDisconnect) for USB_DevDisconnect
    lto-llvm-af9222.o(.ARM.exidx.text.HAL_PCD_Init) refers to lto-llvm-af9222.o(.text.HAL_PCD_Init) for [Anonymous Symbol]
    lto-llvm-af9222.o(.text.HAL_PCD_Start) refers to lto-llvm-af9222.o(.text.USB_DevConnect) for USB_DevConnect
    lto-llvm-af9222.o(.text.HAL_PCD_Start) refers to lto-llvm-af9222.o(.text.USB_EnableGlobalInt) for USB_EnableGlobalInt
    lto-llvm-af9222.o(.ARM.exidx.text.HAL_PCD_Start) refers to lto-llvm-af9222.o(.text.HAL_PCD_Start) for [Anonymous Symbol]
    lto-llvm-af9222.o(.text.HAL_PCD_IRQHandler) refers to lto-llvm-af9222.o(.bss.hpcd_USB_OTG_FS) for hpcd_USB_OTG_FS
    lto-llvm-af9222.o(.text.HAL_PCD_IRQHandler) refers to lto-llvm-af9222.o(.text.USB_GetMode) for USB_GetMode
    lto-llvm-af9222.o(.text.HAL_PCD_IRQHandler) refers to lto-llvm-af9222.o(.text.USB_ReadInterrupts) for USB_ReadInterrupts
    lto-llvm-af9222.o(.text.HAL_PCD_IRQHandler) refers to lto-llvm-af9222.o(.text.USB_ReadDevAllOutEpInterrupt) for USB_ReadDevAllOutEpInterrupt
    lto-llvm-af9222.o(.text.HAL_PCD_IRQHandler) refers to lto-llvm-af9222.o(.text.USB_ReadDevOutEPInterrupt) for USB_ReadDevOutEPInterrupt
    lto-llvm-af9222.o(.text.HAL_PCD_IRQHandler) refers to lto-llvm-af9222.o(.text.PCD_EP_OutXfrComplete_int) for PCD_EP_OutXfrComplete_int
    lto-llvm-af9222.o(.text.HAL_PCD_IRQHandler) refers to lto-llvm-af9222.o(.text.PCD_EP_OutSetupPacket_int) for PCD_EP_OutSetupPacket_int
    lto-llvm-af9222.o(.text.HAL_PCD_IRQHandler) refers to lto-llvm-af9222.o(.text.USB_EP0_OutStart) for USB_EP0_OutStart
    lto-llvm-af9222.o(.text.HAL_PCD_IRQHandler) refers to lto-llvm-af9222.o(.text.USB_ReadDevAllInEpInterrupt) for USB_ReadDevAllInEpInterrupt
    lto-llvm-af9222.o(.text.HAL_PCD_IRQHandler) refers to lto-llvm-af9222.o(.text.USB_ReadDevInEPInterrupt) for USB_ReadDevInEPInterrupt
    lto-llvm-af9222.o(.text.HAL_PCD_IRQHandler) refers to lto-llvm-af9222.o(.text.HAL_PCD_DataInStageCallback) for HAL_PCD_DataInStageCallback
    lto-llvm-af9222.o(.text.HAL_PCD_IRQHandler) refers to lto-llvm-af9222.o(.text.PCD_WriteEmptyTxFifo) for PCD_WriteEmptyTxFifo
    lto-llvm-af9222.o(.text.HAL_PCD_IRQHandler) refers to lto-llvm-af9222.o(.text.HAL_PCDEx_LPM_Callback) for HAL_PCDEx_LPM_Callback
    lto-llvm-af9222.o(.text.HAL_PCD_IRQHandler) refers to lto-llvm-af9222.o(.text.HAL_PCD_ResumeCallback) for HAL_PCD_ResumeCallback
    lto-llvm-af9222.o(.text.HAL_PCD_IRQHandler) refers to lto-llvm-af9222.o(.text.HAL_PCD_SuspendCallback) for HAL_PCD_SuspendCallback
    lto-llvm-af9222.o(.text.HAL_PCD_IRQHandler) refers to lto-llvm-af9222.o(.text.USB_FlushTxFifo) for USB_FlushTxFifo
    lto-llvm-af9222.o(.text.HAL_PCD_IRQHandler) refers to lto-llvm-af9222.o(.text.USB_ActivateSetup) for USB_ActivateSetup
    lto-llvm-af9222.o(.text.HAL_PCD_IRQHandler) refers to lto-llvm-af9222.o(.text.USB_GetDevSpeed) for USB_GetDevSpeed
    lto-llvm-af9222.o(.text.HAL_PCD_IRQHandler) refers to lto-llvm-af9222.o(.text.HAL_RCC_GetHCLKFreq) for HAL_RCC_GetHCLKFreq
    lto-llvm-af9222.o(.text.HAL_PCD_IRQHandler) refers to lto-llvm-af9222.o(.text.USB_SetTurnaroundTime) for USB_SetTurnaroundTime
    lto-llvm-af9222.o(.text.HAL_PCD_IRQHandler) refers to lto-llvm-af9222.o(.text.HAL_PCD_ResetCallback) for HAL_PCD_ResetCallback
    lto-llvm-af9222.o(.text.HAL_PCD_IRQHandler) refers to lto-llvm-af9222.o(.text.USB_ReadPacket) for USB_ReadPacket
    lto-llvm-af9222.o(.text.HAL_PCD_IRQHandler) refers to lto-llvm-af9222.o(.text.HAL_PCD_SOFCallback) for HAL_PCD_SOFCallback
    lto-llvm-af9222.o(.text.HAL_PCD_IRQHandler) refers to lto-llvm-af9222.o(.text.HAL_PCD_ISOINIncompleteCallback) for HAL_PCD_ISOINIncompleteCallback
    lto-llvm-af9222.o(.text.HAL_PCD_IRQHandler) refers to lto-llvm-af9222.o(.text.HAL_PCD_ISOOUTIncompleteCallback) for HAL_PCD_ISOOUTIncompleteCallback
    lto-llvm-af9222.o(.text.HAL_PCD_IRQHandler) refers to lto-llvm-af9222.o(.text.HAL_PCD_ConnectCallback) for HAL_PCD_ConnectCallback
    lto-llvm-af9222.o(.text.HAL_PCD_IRQHandler) refers to lto-llvm-af9222.o(.text.HAL_PCD_DisconnectCallback) for HAL_PCD_DisconnectCallback
    lto-llvm-af9222.o(.ARM.exidx.text.HAL_PCD_IRQHandler) refers to lto-llvm-af9222.o(.text.HAL_PCD_IRQHandler) for [Anonymous Symbol]
    lto-llvm-af9222.o(.text.PCD_EP_OutXfrComplete_int) refers to lto-llvm-af9222.o(.text.HAL_PCD_SetupStageCallback) for HAL_PCD_SetupStageCallback
    lto-llvm-af9222.o(.text.PCD_EP_OutXfrComplete_int) refers to lto-llvm-af9222.o(.text.USB_EP0_OutStart) for USB_EP0_OutStart
    lto-llvm-af9222.o(.text.PCD_EP_OutXfrComplete_int) refers to lto-llvm-af9222.o(.text.HAL_PCD_DataOutStageCallback) for HAL_PCD_DataOutStageCallback
    lto-llvm-af9222.o(.ARM.exidx.text.PCD_EP_OutXfrComplete_int) refers to lto-llvm-af9222.o(.text.PCD_EP_OutXfrComplete_int) for [Anonymous Symbol]
    lto-llvm-af9222.o(.text.PCD_EP_OutSetupPacket_int) refers to lto-llvm-af9222.o(.text.HAL_PCD_SetupStageCallback) for HAL_PCD_SetupStageCallback
    lto-llvm-af9222.o(.text.PCD_EP_OutSetupPacket_int) refers to lto-llvm-af9222.o(.text.USB_EP0_OutStart) for USB_EP0_OutStart
    lto-llvm-af9222.o(.ARM.exidx.text.PCD_EP_OutSetupPacket_int) refers to lto-llvm-af9222.o(.text.PCD_EP_OutSetupPacket_int) for [Anonymous Symbol]
    lto-llvm-af9222.o(.text.PCD_WriteEmptyTxFifo) refers to lto-llvm-af9222.o(.text.USB_WritePacket) for USB_WritePacket
    lto-llvm-af9222.o(.ARM.exidx.text.PCD_WriteEmptyTxFifo) refers to lto-llvm-af9222.o(.text.PCD_WriteEmptyTxFifo) for [Anonymous Symbol]
    lto-llvm-af9222.o(.text.HAL_PCD_SetAddress) refers to lto-llvm-af9222.o(.text.USB_SetDevAddress) for USB_SetDevAddress
    lto-llvm-af9222.o(.ARM.exidx.text.HAL_PCD_SetAddress) refers to lto-llvm-af9222.o(.text.HAL_PCD_SetAddress) for [Anonymous Symbol]
    lto-llvm-af9222.o(.text.HAL_PCD_EP_Open) refers to lto-llvm-af9222.o(.text.USB_ActivateEndpoint) for USB_ActivateEndpoint
    lto-llvm-af9222.o(.ARM.exidx.text.HAL_PCD_EP_Open) refers to lto-llvm-af9222.o(.text.HAL_PCD_EP_Open) for [Anonymous Symbol]
    lto-llvm-af9222.o(.text.HAL_PCD_EP_Close) refers to lto-llvm-af9222.o(.text.USB_DeactivateEndpoint) for USB_DeactivateEndpoint
    lto-llvm-af9222.o(.ARM.exidx.text.HAL_PCD_EP_Close) refers to lto-llvm-af9222.o(.text.HAL_PCD_EP_Close) for [Anonymous Symbol]
    lto-llvm-af9222.o(.text.HAL_PCD_EP_Receive) refers to lto-llvm-af9222.o(.text.USB_EP0StartXfer) for USB_EP0StartXfer
    lto-llvm-af9222.o(.text.HAL_PCD_EP_Receive) refers to lto-llvm-af9222.o(.text.USB_EPStartXfer) for USB_EPStartXfer
    lto-llvm-af9222.o(.ARM.exidx.text.HAL_PCD_EP_Receive) refers to lto-llvm-af9222.o(.text.HAL_PCD_EP_Receive) for [Anonymous Symbol]
    lto-llvm-af9222.o(.ARM.exidx.text.HAL_PCD_EP_GetRxCount) refers to lto-llvm-af9222.o(.text.HAL_PCD_EP_GetRxCount) for [Anonymous Symbol]
    lto-llvm-af9222.o(.text.HAL_PCD_EP_Transmit) refers to lto-llvm-af9222.o(.text.USB_EP0StartXfer) for USB_EP0StartXfer
    lto-llvm-af9222.o(.text.HAL_PCD_EP_Transmit) refers to lto-llvm-af9222.o(.text.USB_EPStartXfer) for USB_EPStartXfer
    lto-llvm-af9222.o(.ARM.exidx.text.HAL_PCD_EP_Transmit) refers to lto-llvm-af9222.o(.text.HAL_PCD_EP_Transmit) for [Anonymous Symbol]
    lto-llvm-af9222.o(.text.HAL_PCD_EP_SetStall) refers to lto-llvm-af9222.o(.text.USB_EPSetStall) for USB_EPSetStall
    lto-llvm-af9222.o(.text.HAL_PCD_EP_SetStall) refers to lto-llvm-af9222.o(.text.USB_EP0_OutStart) for USB_EP0_OutStart
    lto-llvm-af9222.o(.ARM.exidx.text.HAL_PCD_EP_SetStall) refers to lto-llvm-af9222.o(.text.HAL_PCD_EP_SetStall) for [Anonymous Symbol]
    lto-llvm-af9222.o(.text.HAL_PCD_EP_ClrStall) refers to lto-llvm-af9222.o(.text.USB_EPClearStall) for USB_EPClearStall
    lto-llvm-af9222.o(.ARM.exidx.text.HAL_PCD_EP_ClrStall) refers to lto-llvm-af9222.o(.text.HAL_PCD_EP_ClrStall) for [Anonymous Symbol]
    lto-llvm-af9222.o(.text.HAL_PCDEx_SetTxFiFo) refers to lto-llvm-af9222.o(.bss.hpcd_USB_OTG_FS) for hpcd_USB_OTG_FS
    lto-llvm-af9222.o(.ARM.exidx.text.HAL_PCDEx_SetTxFiFo) refers to lto-llvm-af9222.o(.text.HAL_PCDEx_SetTxFiFo) for [Anonymous Symbol]
    lto-llvm-af9222.o(.text.HAL_PCDEx_SetRxFiFo) refers to lto-llvm-af9222.o(.bss.hpcd_USB_OTG_FS) for hpcd_USB_OTG_FS
    lto-llvm-af9222.o(.ARM.exidx.text.HAL_PCDEx_SetRxFiFo) refers to lto-llvm-af9222.o(.text.HAL_PCDEx_SetRxFiFo) for [Anonymous Symbol]
    lto-llvm-af9222.o(.ARM.exidx.text.HAL_PCDEx_LPM_Callback) refers to lto-llvm-af9222.o(.text.HAL_PCDEx_LPM_Callback) for [Anonymous Symbol]
    lto-llvm-af9222.o(.text.USB_CoreInit) refers to lto-llvm-af9222.o(.text.USB_CoreReset) for USB_CoreReset
    lto-llvm-af9222.o(.ARM.exidx.text.USB_CoreInit) refers to lto-llvm-af9222.o(.text.USB_CoreInit) for [Anonymous Symbol]
    lto-llvm-af9222.o(.ARM.exidx.text.USB_CoreReset) refers to lto-llvm-af9222.o(.text.USB_CoreReset) for [Anonymous Symbol]
    lto-llvm-af9222.o(.ARM.exidx.text.USB_SetTurnaroundTime) refers to lto-llvm-af9222.o(.text.USB_SetTurnaroundTime) for [Anonymous Symbol]
    lto-llvm-af9222.o(.ARM.exidx.text.USB_EnableGlobalInt) refers to lto-llvm-af9222.o(.text.USB_EnableGlobalInt) for [Anonymous Symbol]
    lto-llvm-af9222.o(.ARM.exidx.text.USB_DisableGlobalInt) refers to lto-llvm-af9222.o(.text.USB_DisableGlobalInt) for [Anonymous Symbol]
    lto-llvm-af9222.o(.text.USB_SetCurrentMode) refers to lto-llvm-af9222.o(.text.HAL_Delay) for HAL_Delay
    lto-llvm-af9222.o(.ARM.exidx.text.USB_SetCurrentMode) refers to lto-llvm-af9222.o(.text.USB_SetCurrentMode) for [Anonymous Symbol]
    lto-llvm-af9222.o(.text.USB_DevInit) refers to lto-llvm-af9222.o(.text.USB_SetDevSpeed) for USB_SetDevSpeed
    lto-llvm-af9222.o(.text.USB_DevInit) refers to lto-llvm-af9222.o(.text.USB_FlushTxFifo) for USB_FlushTxFifo
    lto-llvm-af9222.o(.text.USB_DevInit) refers to lto-llvm-af9222.o(.text.USB_FlushRxFifo) for USB_FlushRxFifo
    lto-llvm-af9222.o(.ARM.exidx.text.USB_DevInit) refers to lto-llvm-af9222.o(.text.USB_DevInit) for [Anonymous Symbol]
    lto-llvm-af9222.o(.ARM.exidx.text.USB_SetDevSpeed) refers to lto-llvm-af9222.o(.text.USB_SetDevSpeed) for [Anonymous Symbol]
    lto-llvm-af9222.o(.ARM.exidx.text.USB_FlushTxFifo) refers to lto-llvm-af9222.o(.text.USB_FlushTxFifo) for [Anonymous Symbol]
    lto-llvm-af9222.o(.ARM.exidx.text.USB_FlushRxFifo) refers to lto-llvm-af9222.o(.text.USB_FlushRxFifo) for [Anonymous Symbol]
    lto-llvm-af9222.o(.ARM.exidx.text.USB_GetDevSpeed) refers to lto-llvm-af9222.o(.text.USB_GetDevSpeed) for [Anonymous Symbol]
    lto-llvm-af9222.o(.ARM.exidx.text.USB_ActivateEndpoint) refers to lto-llvm-af9222.o(.text.USB_ActivateEndpoint) for [Anonymous Symbol]
    lto-llvm-af9222.o(.ARM.exidx.text.USB_DeactivateEndpoint) refers to lto-llvm-af9222.o(.text.USB_DeactivateEndpoint) for [Anonymous Symbol]
    lto-llvm-af9222.o(.text.USB_EPStartXfer) refers to lto-llvm-af9222.o(.text.USB_WritePacket) for USB_WritePacket
    lto-llvm-af9222.o(.ARM.exidx.text.USB_EPStartXfer) refers to lto-llvm-af9222.o(.text.USB_EPStartXfer) for [Anonymous Symbol]
    lto-llvm-af9222.o(.ARM.exidx.text.USB_WritePacket) refers to lto-llvm-af9222.o(.text.USB_WritePacket) for [Anonymous Symbol]
    lto-llvm-af9222.o(.ARM.exidx.text.USB_EP0StartXfer) refers to lto-llvm-af9222.o(.text.USB_EP0StartXfer) for [Anonymous Symbol]
    lto-llvm-af9222.o(.ARM.exidx.text.USB_ReadPacket) refers to lto-llvm-af9222.o(.text.USB_ReadPacket) for [Anonymous Symbol]
    lto-llvm-af9222.o(.ARM.exidx.text.USB_EPSetStall) refers to lto-llvm-af9222.o(.text.USB_EPSetStall) for [Anonymous Symbol]
    lto-llvm-af9222.o(.ARM.exidx.text.USB_EPClearStall) refers to lto-llvm-af9222.o(.text.USB_EPClearStall) for [Anonymous Symbol]
    lto-llvm-af9222.o(.ARM.exidx.text.USB_SetDevAddress) refers to lto-llvm-af9222.o(.text.USB_SetDevAddress) for [Anonymous Symbol]
    lto-llvm-af9222.o(.text.USB_DevConnect) refers to lto-llvm-af9222.o(.text.HAL_Delay) for HAL_Delay
    lto-llvm-af9222.o(.ARM.exidx.text.USB_DevConnect) refers to lto-llvm-af9222.o(.text.USB_DevConnect) for [Anonymous Symbol]
    lto-llvm-af9222.o(.text.USB_DevDisconnect) refers to lto-llvm-af9222.o(.text.HAL_Delay) for HAL_Delay
    lto-llvm-af9222.o(.ARM.exidx.text.USB_DevDisconnect) refers to lto-llvm-af9222.o(.text.USB_DevDisconnect) for [Anonymous Symbol]
    lto-llvm-af9222.o(.ARM.exidx.text.USB_ReadInterrupts) refers to lto-llvm-af9222.o(.text.USB_ReadInterrupts) for [Anonymous Symbol]
    lto-llvm-af9222.o(.ARM.exidx.text.USB_ReadDevAllOutEpInterrupt) refers to lto-llvm-af9222.o(.text.USB_ReadDevAllOutEpInterrupt) for [Anonymous Symbol]
    lto-llvm-af9222.o(.ARM.exidx.text.USB_ReadDevAllInEpInterrupt) refers to lto-llvm-af9222.o(.text.USB_ReadDevAllInEpInterrupt) for [Anonymous Symbol]
    lto-llvm-af9222.o(.ARM.exidx.text.USB_ReadDevOutEPInterrupt) refers to lto-llvm-af9222.o(.text.USB_ReadDevOutEPInterrupt) for [Anonymous Symbol]
    lto-llvm-af9222.o(.ARM.exidx.text.USB_ReadDevInEPInterrupt) refers to lto-llvm-af9222.o(.text.USB_ReadDevInEPInterrupt) for [Anonymous Symbol]
    lto-llvm-af9222.o(.ARM.exidx.text.USB_GetMode) refers to lto-llvm-af9222.o(.text.USB_GetMode) for [Anonymous Symbol]
    lto-llvm-af9222.o(.ARM.exidx.text.USB_ActivateSetup) refers to lto-llvm-af9222.o(.text.USB_ActivateSetup) for [Anonymous Symbol]
    lto-llvm-af9222.o(.ARM.exidx.text.USB_EP0_OutStart) refers to lto-llvm-af9222.o(.text.USB_EP0_OutStart) for [Anonymous Symbol]
    lto-llvm-af9222.o(.ARM.exidx.text.SystemInit) refers to lto-llvm-af9222.o(.text.SystemInit) for [Anonymous Symbol]
    lto-llvm-af9222.o(.text.USBD_Init) refers to lto-llvm-af9222.o(.bss.hUsbDeviceFS) for hUsbDeviceFS
    lto-llvm-af9222.o(.text.USBD_Init) refers to lto-llvm-af9222.o(.data.FS_Desc) for FS_Desc
    lto-llvm-af9222.o(.text.USBD_Init) refers to lto-llvm-af9222.o(.text.USBD_LL_Init) for USBD_LL_Init
    lto-llvm-af9222.o(.ARM.exidx.text.USBD_Init) refers to lto-llvm-af9222.o(.text.USBD_Init) for [Anonymous Symbol]
    lto-llvm-af9222.o(.text.USBD_RegisterClass) refers to lto-llvm-af9222.o(.bss.hUsbDeviceFS) for hUsbDeviceFS
    lto-llvm-af9222.o(.text.USBD_RegisterClass) refers to lto-llvm-af9222.o(.data.USBD_CDC) for USBD_CDC
    lto-llvm-af9222.o(.ARM.exidx.text.USBD_RegisterClass) refers to lto-llvm-af9222.o(.text.USBD_RegisterClass) for [Anonymous Symbol]
    lto-llvm-af9222.o(.text.USBD_Start) refers to lto-llvm-af9222.o(.bss.hUsbDeviceFS) for hUsbDeviceFS
    lto-llvm-af9222.o(.text.USBD_Start) refers to lto-llvm-af9222.o(.text.USBD_LL_Start) for USBD_LL_Start
    lto-llvm-af9222.o(.ARM.exidx.text.USBD_Start) refers to lto-llvm-af9222.o(.text.USBD_Start) for [Anonymous Symbol]
    lto-llvm-af9222.o(.ARM.exidx.text.USBD_RunTestMode) refers to lto-llvm-af9222.o(.text.USBD_RunTestMode) for [Anonymous Symbol]
    lto-llvm-af9222.o(.ARM.exidx.text.USBD_SetClassConfig) refers to lto-llvm-af9222.o(.text.USBD_SetClassConfig) for [Anonymous Symbol]
    lto-llvm-af9222.o(.ARM.exidx.text.USBD_ClrClassConfig) refers to lto-llvm-af9222.o(.text.USBD_ClrClassConfig) for [Anonymous Symbol]
    lto-llvm-af9222.o(.text.USBD_LL_SetupStage) refers to lto-llvm-af9222.o(.text.USBD_ParseSetupRequest) for USBD_ParseSetupRequest
    lto-llvm-af9222.o(.text.USBD_LL_SetupStage) refers to lto-llvm-af9222.o(.text.USBD_StdDevReq) for USBD_StdDevReq
    lto-llvm-af9222.o(.text.USBD_LL_SetupStage) refers to lto-llvm-af9222.o(.text.USBD_StdItfReq) for USBD_StdItfReq
    lto-llvm-af9222.o(.text.USBD_LL_SetupStage) refers to lto-llvm-af9222.o(.text.USBD_StdEPReq) for USBD_StdEPReq
    lto-llvm-af9222.o(.text.USBD_LL_SetupStage) refers to lto-llvm-af9222.o(.text.USBD_LL_StallEP) for USBD_LL_StallEP
    lto-llvm-af9222.o(.ARM.exidx.text.USBD_LL_SetupStage) refers to lto-llvm-af9222.o(.text.USBD_LL_SetupStage) for [Anonymous Symbol]
    lto-llvm-af9222.o(.text.USBD_LL_DataOutStage) refers to lto-llvm-af9222.o(.text.USBD_CtlContinueRx) for USBD_CtlContinueRx
    lto-llvm-af9222.o(.text.USBD_LL_DataOutStage) refers to lto-llvm-af9222.o(.text.USBD_CtlSendStatus) for USBD_CtlSendStatus
    lto-llvm-af9222.o(.text.USBD_LL_DataOutStage) refers to lto-llvm-af9222.o(.text.USBD_LL_StallEP) for USBD_LL_StallEP
    lto-llvm-af9222.o(.ARM.exidx.text.USBD_LL_DataOutStage) refers to lto-llvm-af9222.o(.text.USBD_LL_DataOutStage) for [Anonymous Symbol]
    lto-llvm-af9222.o(.text.USBD_LL_DataInStage) refers to lto-llvm-af9222.o(.text.USBD_CtlContinueSendData) for USBD_CtlContinueSendData
    lto-llvm-af9222.o(.text.USBD_LL_DataInStage) refers to lto-llvm-af9222.o(.text.USBD_LL_PrepareReceive) for USBD_LL_PrepareReceive
    lto-llvm-af9222.o(.text.USBD_LL_DataInStage) refers to lto-llvm-af9222.o(.text.USBD_LL_StallEP) for USBD_LL_StallEP
    lto-llvm-af9222.o(.text.USBD_LL_DataInStage) refers to lto-llvm-af9222.o(.text.USBD_CtlReceiveStatus) for USBD_CtlReceiveStatus
    lto-llvm-af9222.o(.text.USBD_LL_DataInStage) refers to lto-llvm-af9222.o(.text.USBD_RunTestMode) for USBD_RunTestMode
    lto-llvm-af9222.o(.ARM.exidx.text.USBD_LL_DataInStage) refers to lto-llvm-af9222.o(.text.USBD_LL_DataInStage) for [Anonymous Symbol]
    lto-llvm-af9222.o(.text.USBD_LL_Reset) refers to lto-llvm-af9222.o(.text.USBD_LL_OpenEP) for USBD_LL_OpenEP
    lto-llvm-af9222.o(.ARM.exidx.text.USBD_LL_Reset) refers to lto-llvm-af9222.o(.text.USBD_LL_Reset) for [Anonymous Symbol]
    lto-llvm-af9222.o(.ARM.exidx.text.USBD_LL_SetSpeed) refers to lto-llvm-af9222.o(.text.USBD_LL_SetSpeed) for [Anonymous Symbol]
    lto-llvm-af9222.o(.ARM.exidx.text.USBD_LL_Suspend) refers to lto-llvm-af9222.o(.text.USBD_LL_Suspend) for [Anonymous Symbol]
    lto-llvm-af9222.o(.ARM.exidx.text.USBD_LL_Resume) refers to lto-llvm-af9222.o(.text.USBD_LL_Resume) for [Anonymous Symbol]
    lto-llvm-af9222.o(.ARM.exidx.text.USBD_LL_SOF) refers to lto-llvm-af9222.o(.text.USBD_LL_SOF) for [Anonymous Symbol]
    lto-llvm-af9222.o(.ARM.exidx.text.USBD_LL_IsoINIncomplete) refers to lto-llvm-af9222.o(.text.USBD_LL_IsoINIncomplete) for [Anonymous Symbol]
    lto-llvm-af9222.o(.ARM.exidx.text.USBD_LL_IsoOUTIncomplete) refers to lto-llvm-af9222.o(.text.USBD_LL_IsoOUTIncomplete) for [Anonymous Symbol]
    lto-llvm-af9222.o(.ARM.exidx.text.USBD_LL_DevConnected) refers to lto-llvm-af9222.o(.text.USBD_LL_DevConnected) for [Anonymous Symbol]
    lto-llvm-af9222.o(.ARM.exidx.text.USBD_LL_DevDisconnected) refers to lto-llvm-af9222.o(.text.USBD_LL_DevDisconnected) for [Anonymous Symbol]
    lto-llvm-af9222.o(.text.USBD_StdDevReq) refers to lto-llvm-af9222.o(.text.USBD_GetDescriptor) for USBD_GetDescriptor
    lto-llvm-af9222.o(.text.USBD_StdDevReq) refers to lto-llvm-af9222.o(.text.USBD_SetAddress) for USBD_SetAddress
    lto-llvm-af9222.o(.text.USBD_StdDevReq) refers to lto-llvm-af9222.o(.text.USBD_SetConfig) for USBD_SetConfig
    lto-llvm-af9222.o(.text.USBD_StdDevReq) refers to lto-llvm-af9222.o(.text.USBD_GetConfig) for USBD_GetConfig
    lto-llvm-af9222.o(.text.USBD_StdDevReq) refers to lto-llvm-af9222.o(.text.USBD_GetStatus) for USBD_GetStatus
    lto-llvm-af9222.o(.text.USBD_StdDevReq) refers to lto-llvm-af9222.o(.text.USBD_SetFeature) for USBD_SetFeature
    lto-llvm-af9222.o(.text.USBD_StdDevReq) refers to lto-llvm-af9222.o(.text.USBD_ClrFeature) for USBD_ClrFeature
    lto-llvm-af9222.o(.text.USBD_StdDevReq) refers to lto-llvm-af9222.o(.text.USBD_CtlError) for USBD_CtlError
    lto-llvm-af9222.o(.ARM.exidx.text.USBD_StdDevReq) refers to lto-llvm-af9222.o(.text.USBD_StdDevReq) for [Anonymous Symbol]
    lto-llvm-af9222.o(.text.USBD_GetDescriptor) refers to lto-llvm-af9222.o(.text.USBD_CtlError) for USBD_CtlError
    lto-llvm-af9222.o(.text.USBD_GetDescriptor) refers to lto-llvm-af9222.o(.text.USBD_CtlSendData) for USBD_CtlSendData
    lto-llvm-af9222.o(.text.USBD_GetDescriptor) refers to lto-llvm-af9222.o(.text.USBD_CtlSendStatus) for USBD_CtlSendStatus
    lto-llvm-af9222.o(.ARM.exidx.text.USBD_GetDescriptor) refers to lto-llvm-af9222.o(.text.USBD_GetDescriptor) for [Anonymous Symbol]
    lto-llvm-af9222.o(.text.USBD_SetAddress) refers to lto-llvm-af9222.o(.text.USBD_CtlError) for USBD_CtlError
    lto-llvm-af9222.o(.text.USBD_SetAddress) refers to lto-llvm-af9222.o(.text.USBD_LL_SetUSBAddress) for USBD_LL_SetUSBAddress
    lto-llvm-af9222.o(.text.USBD_SetAddress) refers to lto-llvm-af9222.o(.text.USBD_CtlSendStatus) for USBD_CtlSendStatus
    lto-llvm-af9222.o(.ARM.exidx.text.USBD_SetAddress) refers to lto-llvm-af9222.o(.text.USBD_SetAddress) for [Anonymous Symbol]
    lto-llvm-af9222.o(.text.USBD_SetConfig) refers to lto-llvm-af9222.o(.bss.USBD_SetConfig.cfgidx) for USBD_SetConfig.cfgidx
    lto-llvm-af9222.o(.text.USBD_SetConfig) refers to lto-llvm-af9222.o(.text.USBD_CtlError) for USBD_CtlError
    lto-llvm-af9222.o(.text.USBD_SetConfig) refers to lto-llvm-af9222.o(.text.USBD_SetClassConfig) for USBD_SetClassConfig
    lto-llvm-af9222.o(.text.USBD_SetConfig) refers to lto-llvm-af9222.o(.text.USBD_CtlSendStatus) for USBD_CtlSendStatus
    lto-llvm-af9222.o(.text.USBD_SetConfig) refers to lto-llvm-af9222.o(.text.USBD_ClrClassConfig) for USBD_ClrClassConfig
    lto-llvm-af9222.o(.ARM.exidx.text.USBD_SetConfig) refers to lto-llvm-af9222.o(.text.USBD_SetConfig) for [Anonymous Symbol]
    lto-llvm-af9222.o(.text.USBD_GetConfig) refers to lto-llvm-af9222.o(.text.USBD_CtlError) for USBD_CtlError
    lto-llvm-af9222.o(.text.USBD_GetConfig) refers to lto-llvm-af9222.o(.text.USBD_CtlSendData) for USBD_CtlSendData
    lto-llvm-af9222.o(.ARM.exidx.text.USBD_GetConfig) refers to lto-llvm-af9222.o(.text.USBD_GetConfig) for [Anonymous Symbol]
    lto-llvm-af9222.o(.text.USBD_GetStatus) refers to lto-llvm-af9222.o(.text.USBD_CtlError) for USBD_CtlError
    lto-llvm-af9222.o(.text.USBD_GetStatus) refers to lto-llvm-af9222.o(.text.USBD_CtlSendData) for USBD_CtlSendData
    lto-llvm-af9222.o(.ARM.exidx.text.USBD_GetStatus) refers to lto-llvm-af9222.o(.text.USBD_GetStatus) for [Anonymous Symbol]
    lto-llvm-af9222.o(.text.USBD_SetFeature) refers to lto-llvm-af9222.o(.text.USBD_CtlSendStatus) for USBD_CtlSendStatus
    lto-llvm-af9222.o(.ARM.exidx.text.USBD_SetFeature) refers to lto-llvm-af9222.o(.text.USBD_SetFeature) for [Anonymous Symbol]
    lto-llvm-af9222.o(.text.USBD_ClrFeature) refers to lto-llvm-af9222.o(.text.USBD_CtlSendStatus) for USBD_CtlSendStatus
    lto-llvm-af9222.o(.text.USBD_ClrFeature) refers to lto-llvm-af9222.o(.text.USBD_CtlError) for USBD_CtlError
    lto-llvm-af9222.o(.ARM.exidx.text.USBD_ClrFeature) refers to lto-llvm-af9222.o(.text.USBD_ClrFeature) for [Anonymous Symbol]
    lto-llvm-af9222.o(.text.USBD_CtlError) refers to lto-llvm-af9222.o(.text.USBD_LL_StallEP) for USBD_LL_StallEP
    lto-llvm-af9222.o(.ARM.exidx.text.USBD_CtlError) refers to lto-llvm-af9222.o(.text.USBD_CtlError) for [Anonymous Symbol]
    lto-llvm-af9222.o(.text.USBD_StdItfReq) refers to lto-llvm-af9222.o(.text.USBD_CtlSendStatus) for USBD_CtlSendStatus
    lto-llvm-af9222.o(.text.USBD_StdItfReq) refers to lto-llvm-af9222.o(.text.USBD_CtlError) for USBD_CtlError
    lto-llvm-af9222.o(.ARM.exidx.text.USBD_StdItfReq) refers to lto-llvm-af9222.o(.text.USBD_StdItfReq) for [Anonymous Symbol]
    lto-llvm-af9222.o(.text.USBD_StdEPReq) refers to lto-llvm-af9222.o(.text.USBD_LL_StallEP) for USBD_LL_StallEP
    lto-llvm-af9222.o(.text.USBD_StdEPReq) refers to lto-llvm-af9222.o(.text.USBD_CtlError) for USBD_CtlError
    lto-llvm-af9222.o(.text.USBD_StdEPReq) refers to lto-llvm-af9222.o(.text.USBD_CtlSendStatus) for USBD_CtlSendStatus
    lto-llvm-af9222.o(.text.USBD_StdEPReq) refers to lto-llvm-af9222.o(.text.USBD_LL_ClearStallEP) for USBD_LL_ClearStallEP
    lto-llvm-af9222.o(.text.USBD_StdEPReq) refers to lto-llvm-af9222.o(.text.USBD_CtlSendData) for USBD_CtlSendData
    lto-llvm-af9222.o(.text.USBD_StdEPReq) refers to lto-llvm-af9222.o(.text.USBD_LL_IsStallEP) for USBD_LL_IsStallEP
    lto-llvm-af9222.o(.ARM.exidx.text.USBD_StdEPReq) refers to lto-llvm-af9222.o(.text.USBD_StdEPReq) for [Anonymous Symbol]
    lto-llvm-af9222.o(.ARM.exidx.text.USBD_ParseSetupRequest) refers to lto-llvm-af9222.o(.text.USBD_ParseSetupRequest) for [Anonymous Symbol]
    lto-llvm-af9222.o(.text.USBD_GetString) refers to lto-llvm-af9222.o(.bss.USBD_StrDesc) for USBD_StrDesc
    lto-llvm-af9222.o(.text.USBD_GetString) refers to lto-llvm-af9222.o(.text.USBD_GetLen) for USBD_GetLen
    lto-llvm-af9222.o(.ARM.exidx.text.USBD_GetString) refers to lto-llvm-af9222.o(.text.USBD_GetString) for [Anonymous Symbol]
    lto-llvm-af9222.o(.ARM.exidx.text.USBD_GetLen) refers to lto-llvm-af9222.o(.text.USBD_GetLen) for [Anonymous Symbol]
    lto-llvm-af9222.o(.text.USBD_CtlSendData) refers to lto-llvm-af9222.o(.text.USBD_LL_Transmit) for USBD_LL_Transmit
    lto-llvm-af9222.o(.ARM.exidx.text.USBD_CtlSendData) refers to lto-llvm-af9222.o(.text.USBD_CtlSendData) for [Anonymous Symbol]
    lto-llvm-af9222.o(.text.USBD_CtlContinueSendData) refers to lto-llvm-af9222.o(.text.USBD_LL_Transmit) for USBD_LL_Transmit
    lto-llvm-af9222.o(.ARM.exidx.text.USBD_CtlContinueSendData) refers to lto-llvm-af9222.o(.text.USBD_CtlContinueSendData) for [Anonymous Symbol]
    lto-llvm-af9222.o(.text.USBD_CtlPrepareRx) refers to lto-llvm-af9222.o(.text.USBD_LL_PrepareReceive) for USBD_LL_PrepareReceive
    lto-llvm-af9222.o(.ARM.exidx.text.USBD_CtlPrepareRx) refers to lto-llvm-af9222.o(.text.USBD_CtlPrepareRx) for [Anonymous Symbol]
    lto-llvm-af9222.o(.text.USBD_CtlContinueRx) refers to lto-llvm-af9222.o(.text.USBD_LL_PrepareReceive) for USBD_LL_PrepareReceive
    lto-llvm-af9222.o(.ARM.exidx.text.USBD_CtlContinueRx) refers to lto-llvm-af9222.o(.text.USBD_CtlContinueRx) for [Anonymous Symbol]
    lto-llvm-af9222.o(.text.USBD_CtlSendStatus) refers to lto-llvm-af9222.o(.text.USBD_LL_Transmit) for USBD_LL_Transmit
    lto-llvm-af9222.o(.ARM.exidx.text.USBD_CtlSendStatus) refers to lto-llvm-af9222.o(.text.USBD_CtlSendStatus) for [Anonymous Symbol]
    lto-llvm-af9222.o(.text.USBD_CtlReceiveStatus) refers to lto-llvm-af9222.o(.text.USBD_LL_PrepareReceive) for USBD_LL_PrepareReceive
    lto-llvm-af9222.o(.ARM.exidx.text.USBD_CtlReceiveStatus) refers to lto-llvm-af9222.o(.text.USBD_CtlReceiveStatus) for [Anonymous Symbol]
    lto-llvm-af9222.o(.text.USBD_CDC_Init) refers to lto-llvm-af9222.o(.text.USBD_LL_OpenEP) for USBD_LL_OpenEP
    lto-llvm-af9222.o(.text.USBD_CDC_Init) refers to malloc.o(i.malloc) for malloc
    lto-llvm-af9222.o(.text.USBD_CDC_Init) refers to lto-llvm-af9222.o(.text.USBD_LL_PrepareReceive) for USBD_LL_PrepareReceive
    lto-llvm-af9222.o(.ARM.exidx.text.USBD_CDC_Init) refers to lto-llvm-af9222.o(.text.USBD_CDC_Init) for [Anonymous Symbol]
    lto-llvm-af9222.o(.text.USBD_CDC_DeInit) refers to lto-llvm-af9222.o(.text.USBD_LL_CloseEP) for USBD_LL_CloseEP
    lto-llvm-af9222.o(.text.USBD_CDC_DeInit) refers to malloc.o(i.free) for free
    lto-llvm-af9222.o(.ARM.exidx.text.USBD_CDC_DeInit) refers to lto-llvm-af9222.o(.text.USBD_CDC_DeInit) for [Anonymous Symbol]
    lto-llvm-af9222.o(.text.USBD_CDC_Setup) refers to lto-llvm-af9222.o(.text.USBD_CtlSendData) for USBD_CtlSendData
    lto-llvm-af9222.o(.text.USBD_CDC_Setup) refers to lto-llvm-af9222.o(.text.USBD_CtlPrepareRx) for USBD_CtlPrepareRx
    lto-llvm-af9222.o(.text.USBD_CDC_Setup) refers to lto-llvm-af9222.o(.text.USBD_CtlError) for USBD_CtlError
    lto-llvm-af9222.o(.ARM.exidx.text.USBD_CDC_Setup) refers to lto-llvm-af9222.o(.text.USBD_CDC_Setup) for [Anonymous Symbol]
    lto-llvm-af9222.o(.ARM.exidx.text.USBD_CDC_EP0_RxReady) refers to lto-llvm-af9222.o(.text.USBD_CDC_EP0_RxReady) for [Anonymous Symbol]
    lto-llvm-af9222.o(.text.USBD_CDC_DataIn) refers to lto-llvm-af9222.o(.text.USBD_LL_Transmit) for USBD_LL_Transmit
    lto-llvm-af9222.o(.ARM.exidx.text.USBD_CDC_DataIn) refers to lto-llvm-af9222.o(.text.USBD_CDC_DataIn) for [Anonymous Symbol]
    lto-llvm-af9222.o(.text.USBD_CDC_DataOut) refers to lto-llvm-af9222.o(.text.USBD_LL_GetRxDataSize) for USBD_LL_GetRxDataSize
    lto-llvm-af9222.o(.ARM.exidx.text.USBD_CDC_DataOut) refers to lto-llvm-af9222.o(.text.USBD_CDC_DataOut) for [Anonymous Symbol]
    lto-llvm-af9222.o(.text.USBD_CDC_GetHSCfgDesc) refers to lto-llvm-af9222.o(.data.USBD_CDC_CfgHSDesc) for USBD_CDC_CfgHSDesc
    lto-llvm-af9222.o(.ARM.exidx.text.USBD_CDC_GetHSCfgDesc) refers to lto-llvm-af9222.o(.text.USBD_CDC_GetHSCfgDesc) for [Anonymous Symbol]
    lto-llvm-af9222.o(.text.USBD_CDC_GetFSCfgDesc) refers to lto-llvm-af9222.o(.data.USBD_CDC_CfgFSDesc) for USBD_CDC_CfgFSDesc
    lto-llvm-af9222.o(.ARM.exidx.text.USBD_CDC_GetFSCfgDesc) refers to lto-llvm-af9222.o(.text.USBD_CDC_GetFSCfgDesc) for [Anonymous Symbol]
    lto-llvm-af9222.o(.text.USBD_CDC_GetOtherSpeedCfgDesc) refers to lto-llvm-af9222.o(.data.USBD_CDC_OtherSpeedCfgDesc) for USBD_CDC_OtherSpeedCfgDesc
    lto-llvm-af9222.o(.ARM.exidx.text.USBD_CDC_GetOtherSpeedCfgDesc) refers to lto-llvm-af9222.o(.text.USBD_CDC_GetOtherSpeedCfgDesc) for [Anonymous Symbol]
    lto-llvm-af9222.o(.text.USBD_CDC_GetDeviceQualifierDescriptor) refers to lto-llvm-af9222.o(.data.USBD_CDC_DeviceQualifierDesc) for USBD_CDC_DeviceQualifierDesc
    lto-llvm-af9222.o(.ARM.exidx.text.USBD_CDC_GetDeviceQualifierDescriptor) refers to lto-llvm-af9222.o(.text.USBD_CDC_GetDeviceQualifierDescriptor) for [Anonymous Symbol]
    lto-llvm-af9222.o(.text.USBD_CDC_RegisterInterface) refers to lto-llvm-af9222.o(.bss.hUsbDeviceFS) for hUsbDeviceFS
    lto-llvm-af9222.o(.text.USBD_CDC_RegisterInterface) refers to lto-llvm-af9222.o(.data.USBD_Interface_fops_FS) for USBD_Interface_fops_FS
    lto-llvm-af9222.o(.ARM.exidx.text.USBD_CDC_RegisterInterface) refers to lto-llvm-af9222.o(.text.USBD_CDC_RegisterInterface) for [Anonymous Symbol]
    lto-llvm-af9222.o(.text.USBD_CDC_SetTxBuffer) refers to lto-llvm-af9222.o(.bss.hUsbDeviceFS) for hUsbDeviceFS
    lto-llvm-af9222.o(.text.USBD_CDC_SetTxBuffer) refers to lto-llvm-af9222.o(.bss.UserTxBufferFS) for UserTxBufferFS
    lto-llvm-af9222.o(.ARM.exidx.text.USBD_CDC_SetTxBuffer) refers to lto-llvm-af9222.o(.text.USBD_CDC_SetTxBuffer) for [Anonymous Symbol]
    lto-llvm-af9222.o(.text.USBD_CDC_SetRxBuffer) refers to lto-llvm-af9222.o(.bss.hUsbDeviceFS) for hUsbDeviceFS
    lto-llvm-af9222.o(.ARM.exidx.text.USBD_CDC_SetRxBuffer) refers to lto-llvm-af9222.o(.text.USBD_CDC_SetRxBuffer) for [Anonymous Symbol]
    lto-llvm-af9222.o(.text.USBD_CDC_ReceivePacket) refers to lto-llvm-af9222.o(.bss.hUsbDeviceFS) for hUsbDeviceFS
    lto-llvm-af9222.o(.text.USBD_CDC_ReceivePacket) refers to lto-llvm-af9222.o(.text.USBD_LL_PrepareReceive) for USBD_LL_PrepareReceive
    lto-llvm-af9222.o(.ARM.exidx.text.USBD_CDC_ReceivePacket) refers to lto-llvm-af9222.o(.text.USBD_CDC_ReceivePacket) for [Anonymous Symbol]
    lto-llvm-af9222.o(.text._GLOBAL__sub_I_ChassisTask.cpp) refers to lto-llvm-af9222.o(.text.__cxx_global_var_init) for __cxx_global_var_init
    lto-llvm-af9222.o(.text._GLOBAL__sub_I_ChassisTask.cpp) refers to lto-llvm-af9222.o(.text.__cxx_global_var_init.1) for __cxx_global_var_init.1
    lto-llvm-af9222.o(.text._GLOBAL__sub_I_ChassisTask.cpp) refers to lto-llvm-af9222.o(.text.__cxx_global_var_init.2) for __cxx_global_var_init.2
    lto-llvm-af9222.o(.text._GLOBAL__sub_I_ChassisTask.cpp) refers to lto-llvm-af9222.o(.text.__cxx_global_var_init.3) for __cxx_global_var_init.3
    lto-llvm-af9222.o(.ARM.exidx.text._GLOBAL__sub_I_ChassisTask.cpp) refers to lto-llvm-af9222.o(.text._GLOBAL__sub_I_ChassisTask.cpp) for [Anonymous Symbol]
    lto-llvm-af9222.o(.text.__cxx_global_var_init) refers to lto-llvm-af9222.o(.bss.CMFL) for CMFL
    lto-llvm-af9222.o(.text.__cxx_global_var_init) refers to lto-llvm-af9222.o(.data.chassisMotorInit) for chassisMotorInit
    lto-llvm-af9222.o(.text.__cxx_global_var_init) refers to lto-llvm-af9222.o(.text._ZN5MotorC2EjP12MOTOR_INIT_t) for Motor::Motor__sub_object(unsigned int, MOTOR_INIT_t*)
    lto-llvm-af9222.o(.text.__cxx_global_var_init) refers to lto-llvm-af9222.o(.text._ZN5MotorD2Ev) for Motor::~Motor__sub_object()
    lto-llvm-af9222.o(.text.__cxx_global_var_init) refers to cxa_atexit.o(.text) for __cxa_atexit
    lto-llvm-af9222.o(.ARM.exidx.text.__cxx_global_var_init) refers to lto-llvm-af9222.o(.text.__cxx_global_var_init) for [Anonymous Symbol]
    lto-llvm-af9222.o(.text.__cxx_global_var_init.1) refers to lto-llvm-af9222.o(.bss.CMFR) for CMFR
    lto-llvm-af9222.o(.text.__cxx_global_var_init.1) refers to lto-llvm-af9222.o(.data.chassisMotorInit) for chassisMotorInit
    lto-llvm-af9222.o(.text.__cxx_global_var_init.1) refers to lto-llvm-af9222.o(.text._ZN5MotorC2EjP12MOTOR_INIT_t) for Motor::Motor__sub_object(unsigned int, MOTOR_INIT_t*)
    lto-llvm-af9222.o(.text.__cxx_global_var_init.1) refers to lto-llvm-af9222.o(.text._ZN5MotorD2Ev) for Motor::~Motor__sub_object()
    lto-llvm-af9222.o(.text.__cxx_global_var_init.1) refers to cxa_atexit.o(.text) for __cxa_atexit
    lto-llvm-af9222.o(.ARM.exidx.text.__cxx_global_var_init.1) refers to lto-llvm-af9222.o(.text.__cxx_global_var_init.1) for [Anonymous Symbol]
    lto-llvm-af9222.o(.text.__cxx_global_var_init.2) refers to lto-llvm-af9222.o(.bss.CMBL) for CMBL
    lto-llvm-af9222.o(.text.__cxx_global_var_init.2) refers to lto-llvm-af9222.o(.data.chassisMotorInit) for chassisMotorInit
    lto-llvm-af9222.o(.text.__cxx_global_var_init.2) refers to lto-llvm-af9222.o(.text._ZN5MotorC2EjP12MOTOR_INIT_t) for Motor::Motor__sub_object(unsigned int, MOTOR_INIT_t*)
    lto-llvm-af9222.o(.text.__cxx_global_var_init.2) refers to lto-llvm-af9222.o(.text._ZN5MotorD2Ev) for Motor::~Motor__sub_object()
    lto-llvm-af9222.o(.text.__cxx_global_var_init.2) refers to cxa_atexit.o(.text) for __cxa_atexit
    lto-llvm-af9222.o(.ARM.exidx.text.__cxx_global_var_init.2) refers to lto-llvm-af9222.o(.text.__cxx_global_var_init.2) for [Anonymous Symbol]
    lto-llvm-af9222.o(.text.__cxx_global_var_init.3) refers to lto-llvm-af9222.o(.bss.CMBR) for CMBR
    lto-llvm-af9222.o(.text.__cxx_global_var_init.3) refers to lto-llvm-af9222.o(.data.chassisMotorInit) for chassisMotorInit
    lto-llvm-af9222.o(.text.__cxx_global_var_init.3) refers to lto-llvm-af9222.o(.text._ZN5MotorC2EjP12MOTOR_INIT_t) for Motor::Motor__sub_object(unsigned int, MOTOR_INIT_t*)
    lto-llvm-af9222.o(.text.__cxx_global_var_init.3) refers to lto-llvm-af9222.o(.text._ZN5MotorD2Ev) for Motor::~Motor__sub_object()
    lto-llvm-af9222.o(.text.__cxx_global_var_init.3) refers to cxa_atexit.o(.text) for __cxa_atexit
    lto-llvm-af9222.o(.ARM.exidx.text.__cxx_global_var_init.3) refers to lto-llvm-af9222.o(.text.__cxx_global_var_init.3) for [Anonymous Symbol]
    lto-llvm-af9222.o(.ARM.exidx.text._Z12ChassisStartv) refers to lto-llvm-af9222.o(.text._Z12ChassisStartv) for [Anonymous Symbol]
    lto-llvm-af9222.o(.text._Z13ChassisHandlev) refers to lto-llvm-af9222.o(.bss.CMFL) for CMFL
    lto-llvm-af9222.o(.text._Z13ChassisHandlev) refers to lto-llvm-af9222.o(.text._ZN5Motor6HandleEv) for Motor::Handle()
    lto-llvm-af9222.o(.text._Z13ChassisHandlev) refers to lto-llvm-af9222.o(.bss.CMFR) for CMFR
    lto-llvm-af9222.o(.text._Z13ChassisHandlev) refers to lto-llvm-af9222.o(.bss.CMBL) for CMBL
    lto-llvm-af9222.o(.text._Z13ChassisHandlev) refers to lto-llvm-af9222.o(.bss.CMBR) for CMBR
    lto-llvm-af9222.o(.ARM.exidx.text._Z13ChassisHandlev) refers to lto-llvm-af9222.o(.text._Z13ChassisHandlev) for [Anonymous Symbol]
    lto-llvm-af9222.o(.text._Z11ChassisStopv) refers to lto-llvm-af9222.o(.bss.CMFL) for CMFL
    lto-llvm-af9222.o(.text._Z11ChassisStopv) refers to lto-llvm-af9222.o(.text._ZN5Motor4StopEv) for Motor::Stop()
    lto-llvm-af9222.o(.text._Z11ChassisStopv) refers to lto-llvm-af9222.o(.bss.CMFR) for CMFR
    lto-llvm-af9222.o(.text._Z11ChassisStopv) refers to lto-llvm-af9222.o(.bss.CMBL) for CMBL
    lto-llvm-af9222.o(.text._Z11ChassisStopv) refers to lto-llvm-af9222.o(.bss.CMBR) for CMBR
    lto-llvm-af9222.o(.ARM.exidx.text._Z11ChassisStopv) refers to lto-llvm-af9222.o(.text._Z11ChassisStopv) for [Anonymous Symbol]
    lto-llvm-af9222.o(.text._Z10CtrlHandlev) refers to lto-llvm-af9222.o(.bss._ZN13RemoteControl6rcInfoE.5) for RemoteControl::rcInfo (.5)
    lto-llvm-af9222.o(.text._Z10CtrlHandlev) refers to lto-llvm-af9222.o(.text._Z11ChassisStopv) for ChassisStop()
    lto-llvm-af9222.o(.text._Z10CtrlHandlev) refers to lto-llvm-af9222.o(.text._Z8UserStopv) for UserStop()
    lto-llvm-af9222.o(.text._Z10CtrlHandlev) refers to lto-llvm-af9222.o(.bss._ZN13RemoteControl6rcInfoE.4) for RemoteControl::rcInfo (.4)
    lto-llvm-af9222.o(.text._Z10CtrlHandlev) refers to lto-llvm-af9222.o(.bss._ZN13RemoteControl6rcInfoE.0) for RemoteControl::rcInfo (.0)
    lto-llvm-af9222.o(.text._Z10CtrlHandlev) refers to lto-llvm-af9222.o(.text._ZN5Servo14SetTargetAngleEf) for Servo::SetTargetAngle(float)
    lto-llvm-af9222.o(.ARM.exidx.text._Z10CtrlHandlev) refers to lto-llvm-af9222.o(.text._Z10CtrlHandlev) for [Anonymous Symbol]
    lto-llvm-af9222.o(.text._GLOBAL__sub_I_UserTask.cpp) refers to lto-llvm-af9222.o(.text.__cxx_global_var_init.274) for __cxx_global_var_init.274
    lto-llvm-af9222.o(.text._GLOBAL__sub_I_UserTask.cpp) refers to lto-llvm-af9222.o(.text.__cxx_global_var_init.1.275) for __cxx_global_var_init.1.275
    lto-llvm-af9222.o(.ARM.exidx.text._GLOBAL__sub_I_UserTask.cpp) refers to lto-llvm-af9222.o(.text._GLOBAL__sub_I_UserTask.cpp) for [Anonymous Symbol]
    lto-llvm-af9222.o(.text.__cxx_global_var_init.274) refers to lto-llvm-af9222.o(.bss.UserMotor) for UserMotor
    lto-llvm-af9222.o(.text.__cxx_global_var_init.274) refers to lto-llvm-af9222.o(.data.userMotorInit) for userMotorInit
    lto-llvm-af9222.o(.text.__cxx_global_var_init.274) refers to lto-llvm-af9222.o(.text._ZN5MotorC2EjP12MOTOR_INIT_t) for Motor::Motor__sub_object(unsigned int, MOTOR_INIT_t*)
    lto-llvm-af9222.o(.text.__cxx_global_var_init.274) refers to lto-llvm-af9222.o(.text._ZN5MotorD2Ev) for Motor::~Motor__sub_object()
    lto-llvm-af9222.o(.text.__cxx_global_var_init.274) refers to cxa_atexit.o(.text) for __cxa_atexit
    lto-llvm-af9222.o(.ARM.exidx.text.__cxx_global_var_init.274) refers to lto-llvm-af9222.o(.text.__cxx_global_var_init.274) for [Anonymous Symbol]
    lto-llvm-af9222.o(.text.__cxx_global_var_init.1.275) refers to lto-llvm-af9222.o(.bss.ClawServo) for ClawServo
    lto-llvm-af9222.o(.text.__cxx_global_var_init.1.275) refers to lto-llvm-af9222.o(.data.Claw_Servo_Init) for Claw_Servo_Init
    lto-llvm-af9222.o(.text.__cxx_global_var_init.1.275) refers to lto-llvm-af9222.o(.text._ZN5ServoC2EP12SERVO_INIT_T) for Servo::Servo__sub_object(SERVO_INIT_T*)
    lto-llvm-af9222.o(.ARM.exidx.text.__cxx_global_var_init.1.275) refers to lto-llvm-af9222.o(.text.__cxx_global_var_init.1.275) for [Anonymous Symbol]
    lto-llvm-af9222.o(.text._Z8UserStopv) refers to lto-llvm-af9222.o(.bss.UserMotor) for UserMotor
    lto-llvm-af9222.o(.text._Z8UserStopv) refers to lto-llvm-af9222.o(.text._ZN5Motor4StopEv) for Motor::Stop()
    lto-llvm-af9222.o(.text._Z8UserStopv) refers to lto-llvm-af9222.o(.text._ZN5Servo4stopEv) for Servo::stop()
    lto-llvm-af9222.o(.ARM.exidx.text._Z8UserStopv) refers to lto-llvm-af9222.o(.text._Z8UserStopv) for [Anonymous Symbol]
    lto-llvm-af9222.o(.ARM.exidx.text._Z8UserInitv) refers to lto-llvm-af9222.o(.text._Z8UserInitv) for [Anonymous Symbol]
    lto-llvm-af9222.o(.text._Z10UserHandlev) refers to lto-llvm-af9222.o(.bss.UserMotor) for UserMotor
    lto-llvm-af9222.o(.text._Z10UserHandlev) refers to lto-llvm-af9222.o(.text._ZN5Motor6HandleEv) for Motor::Handle()
    lto-llvm-af9222.o(.text._Z10UserHandlev) refers to lto-llvm-af9222.o(.bss.ClawServo) for ClawServo
    lto-llvm-af9222.o(.text._Z10UserHandlev) refers to lto-llvm-af9222.o(.text._ZN5Servo6HandleEv) for Servo::Handle()
    lto-llvm-af9222.o(.ARM.exidx.text._Z10UserHandlev) refers to lto-llvm-af9222.o(.text._Z10UserHandlev) for [Anonymous Symbol]
    lto-llvm-af9222.o(.text._Z13aRGB_led_showj) refers to lto-llvm-af9222.o(.bss._ZZ13aRGB_led_showjE5alpha) for aRGB_led_show(unsigned int)::alpha
    lto-llvm-af9222.o(.text._Z13aRGB_led_showj) refers to lto-llvm-af9222.o(.bss._ZZ13aRGB_led_showjE3red) for aRGB_led_show(unsigned int)::red
    lto-llvm-af9222.o(.text._Z13aRGB_led_showj) refers to lto-llvm-af9222.o(.bss._ZZ13aRGB_led_showjE5green) for aRGB_led_show(unsigned int)::green
    lto-llvm-af9222.o(.text._Z13aRGB_led_showj) refers to lto-llvm-af9222.o(.bss._ZZ13aRGB_led_showjE4blue) for aRGB_led_show(unsigned int)::blue
    lto-llvm-af9222.o(.text._Z13aRGB_led_showj) refers to lto-llvm-af9222.o(.bss.htim5) for htim5
    lto-llvm-af9222.o(.ARM.exidx.text._Z13aRGB_led_showj) refers to lto-llvm-af9222.o(.text._Z13aRGB_led_showj) for [Anonymous Symbol]
    lto-llvm-af9222.o(.text._Z15aRGB_led_changej) refers to lto-llvm-af9222.o(.data._ZZ15aRGB_led_changejE10aRGB_value) for aRGB_led_change(unsigned int)::aRGB_value
    lto-llvm-af9222.o(.text._Z15aRGB_led_changej) refers to lto-llvm-af9222.o(.text.HAL_GetTick) for HAL_GetTick
    lto-llvm-af9222.o(.text._Z15aRGB_led_changej) refers to lto-llvm-af9222.o(.bss._ZZ15aRGB_led_changejE8lastTick) for aRGB_led_change(unsigned int)::lastTick
    lto-llvm-af9222.o(.text._Z15aRGB_led_changej) refers to lto-llvm-af9222.o(.bss._ZZ15aRGB_led_changejE9lastPhase) for aRGB_led_change(unsigned int)::lastPhase
    lto-llvm-af9222.o(.text._Z15aRGB_led_changej) refers to lto-llvm-af9222.o(.text._Z13aRGB_led_showj) for aRGB_led_show(unsigned int)
    lto-llvm-af9222.o(.ARM.exidx.text._Z15aRGB_led_changej) refers to lto-llvm-af9222.o(.text._Z15aRGB_led_changej) for [Anonymous Symbol]
    lto-llvm-af9222.o(.text._Z15bsp_ADC_vccMoniv) refers to lto-llvm-af9222.o(.bss._ZZ15bsp_ADC_vccMonivE15calibrationCplt) for bsp_ADC_vccMoni()::calibrationCplt
    lto-llvm-af9222.o(.text._Z15bsp_ADC_vccMoniv) refers to lto-llvm-af9222.o(.bss._ZZ15bsp_ADC_vccMonivE14calibrationCnt) for bsp_ADC_vccMoni()::calibrationCnt
    lto-llvm-af9222.o(.text._Z15bsp_ADC_vccMoniv) refers to lto-llvm-af9222.o(.bss.hadc1) for hadc1
    lto-llvm-af9222.o(.text._Z15bsp_ADC_vccMoniv) refers to lto-llvm-af9222.o(.text.HAL_ADC_Start) for HAL_ADC_Start
    lto-llvm-af9222.o(.text._Z15bsp_ADC_vccMoniv) refers to lto-llvm-af9222.o(.text.HAL_ADC_PollForConversion) for HAL_ADC_PollForConversion
    lto-llvm-af9222.o(.text._Z15bsp_ADC_vccMoniv) refers to lto-llvm-af9222.o(.text.HAL_ADC_GetValue) for HAL_ADC_GetValue
    lto-llvm-af9222.o(.text._Z15bsp_ADC_vccMoniv) refers to lto-llvm-af9222.o(.bss._ZZ15bsp_ADC_vccMonivE9vrefValue) for bsp_ADC_vccMoni()::vrefValue
    lto-llvm-af9222.o(.text._Z15bsp_ADC_vccMoniv) refers to lto-llvm-af9222.o(.bss._ZZ15bsp_ADC_vccMonivE7vrefSum) for bsp_ADC_vccMoni()::vrefSum
    lto-llvm-af9222.o(.text._Z15bsp_ADC_vccMoniv) refers to lto-llvm-af9222.o(.text.HAL_ADC_Stop) for HAL_ADC_Stop
    lto-llvm-af9222.o(.text._Z15bsp_ADC_vccMoniv) refers to lto-llvm-af9222.o(.bss.hadc3) for hadc3
    lto-llvm-af9222.o(.text._Z15bsp_ADC_vccMoniv) refers to lto-llvm-af9222.o(.bss.vccMoni) for vccMoni
    lto-llvm-af9222.o(.text._Z15bsp_ADC_vccMoniv) refers to lto-llvm-af9222.o(.bss.vccBat) for vccBat
    lto-llvm-af9222.o(.ARM.exidx.text._Z15bsp_ADC_vccMoniv) refers to lto-llvm-af9222.o(.text._Z15bsp_ADC_vccMoniv) for [Anonymous Symbol]
    lto-llvm-af9222.o(.text._Z14bsp_flash_readP12flash_data_t) refers to lto-llvm-af9222.o(.bss.flashData) for flashData
    lto-llvm-af9222.o(.text._Z14bsp_flash_readP12flash_data_t) refers to memcpya.o(.text) for __aeabi_memcpy4
    lto-llvm-af9222.o(.ARM.exidx.text._Z14bsp_flash_readP12flash_data_t) refers to lto-llvm-af9222.o(.text._Z14bsp_flash_readP12flash_data_t) for [Anonymous Symbol]
    lto-llvm-af9222.o(.text.HAL_TIM_PeriodElapsedCallback) refers to lto-llvm-af9222.o(.bss.init_Flag) for init_Flag
    lto-llvm-af9222.o(.text.HAL_TIM_PeriodElapsedCallback) refers to lto-llvm-af9222.o(.bss.htim10) for htim10
    lto-llvm-af9222.o(.text.HAL_TIM_PeriodElapsedCallback) refers to lto-llvm-af9222.o(.bss.period) for period
    lto-llvm-af9222.o(.text.HAL_TIM_PeriodElapsedCallback) refers to lto-llvm-af9222.o(.text._Z15aRGB_led_changej) for aRGB_led_change(unsigned int)
    lto-llvm-af9222.o(.text.HAL_TIM_PeriodElapsedCallback) refers to lto-llvm-af9222.o(.text._Z15bsp_ADC_vccMoniv) for bsp_ADC_vccMoni()
    lto-llvm-af9222.o(.text.HAL_TIM_PeriodElapsedCallback) refers to lto-llvm-af9222.o(.bss._ZZ29HAL_TIM_PeriodElapsedCallbackE3cnt) for HAL_TIM_PeriodElapsedCallback::cnt
    lto-llvm-af9222.o(.text.HAL_TIM_PeriodElapsedCallback) refers to lto-llvm-af9222.o(.text._Z10CtrlHandlev) for CtrlHandle()
    lto-llvm-af9222.o(.text.HAL_TIM_PeriodElapsedCallback) refers to lto-llvm-af9222.o(.text._Z13ChassisHandlev) for ChassisHandle()
    lto-llvm-af9222.o(.text.HAL_TIM_PeriodElapsedCallback) refers to lto-llvm-af9222.o(.text._ZN5Motor14CANPackageSendEv) for Motor::CANPackageSend()
    lto-llvm-af9222.o(.text.HAL_TIM_PeriodElapsedCallback) refers to lto-llvm-af9222.o(.text._Z10UserHandlev) for UserHandle()
    lto-llvm-af9222.o(.text.HAL_TIM_PeriodElapsedCallback) refers to lto-llvm-af9222.o(.bss.vccBat) for vccBat
    lto-llvm-af9222.o(.text.HAL_TIM_PeriodElapsedCallback) refers to lto-llvm-af9222.o(.text.HAL_IWDG_Refresh) for HAL_IWDG_Refresh
    lto-llvm-af9222.o(.ARM.exidx.text.HAL_TIM_PeriodElapsedCallback) refers to lto-llvm-af9222.o(.text.HAL_TIM_PeriodElapsedCallback) for [Anonymous Symbol]
    lto-llvm-af9222.o(.text.HAL_GPIO_EXTI_Callback) refers to lto-llvm-af9222.o(.bss.init_Flag) for init_Flag
    lto-llvm-af9222.o(.text.HAL_GPIO_EXTI_Callback) refers to lto-llvm-af9222.o(.text.HAL_GPIO_ReadPin) for HAL_GPIO_ReadPin
    lto-llvm-af9222.o(.text.HAL_GPIO_EXTI_Callback) refers to lto-llvm-af9222.o(.data.key_raw_state) for key_raw_state
    lto-llvm-af9222.o(.text.HAL_GPIO_EXTI_Callback) refers to lto-llvm-af9222.o(.text.HAL_GetTick) for HAL_GetTick
    lto-llvm-af9222.o(.text.HAL_GPIO_EXTI_Callback) refers to lto-llvm-af9222.o(.bss.key_last_stamp) for key_last_stamp
    lto-llvm-af9222.o(.text.HAL_GPIO_EXTI_Callback) refers to lto-llvm-af9222.o(.bss.period) for period
    lto-llvm-af9222.o(.ARM.exidx.text.HAL_GPIO_EXTI_Callback) refers to lto-llvm-af9222.o(.text.HAL_GPIO_EXTI_Callback) for [Anonymous Symbol]
    lto-llvm-af9222.o(.text.main) refers to lto-llvm-af9222.o(.text.HAL_Init) for HAL_Init
    lto-llvm-af9222.o(.text.main) refers to lto-llvm-af9222.o(.text.SystemClock_Config) for SystemClock_Config
    lto-llvm-af9222.o(.text.main) refers to lto-llvm-af9222.o(.text.MX_GPIO_Init) for MX_GPIO_Init
    lto-llvm-af9222.o(.text.main) refers to lto-llvm-af9222.o(.text.MX_DMA_Init) for MX_DMA_Init
    lto-llvm-af9222.o(.text.main) refers to lto-llvm-af9222.o(.text.MX_TIM5_Init) for MX_TIM5_Init
    lto-llvm-af9222.o(.text.main) refers to lto-llvm-af9222.o(.text.MX_TIM1_Init) for MX_TIM1_Init
    lto-llvm-af9222.o(.text.main) refers to lto-llvm-af9222.o(.text.MX_TIM4_Init) for MX_TIM4_Init
    lto-llvm-af9222.o(.text.main) refers to lto-llvm-af9222.o(.text.MX_TIM10_Init) for MX_TIM10_Init
    lto-llvm-af9222.o(.text.main) refers to lto-llvm-af9222.o(.text.MX_TIM8_Init) for MX_TIM8_Init
    lto-llvm-af9222.o(.text.main) refers to lto-llvm-af9222.o(.text.MX_ADC1_Init) for MX_ADC1_Init
    lto-llvm-af9222.o(.text.main) refers to lto-llvm-af9222.o(.text.MX_ADC3_Init) for MX_ADC3_Init
    lto-llvm-af9222.o(.text.main) refers to lto-llvm-af9222.o(.text.MX_USART1_UART_Init) for MX_USART1_UART_Init
    lto-llvm-af9222.o(.text.main) refers to lto-llvm-af9222.o(.text.MX_USART6_UART_Init) for MX_USART6_UART_Init
    lto-llvm-af9222.o(.text.main) refers to lto-llvm-af9222.o(.text.MX_USART3_UART_Init) for MX_USART3_UART_Init
    lto-llvm-af9222.o(.text.main) refers to lto-llvm-af9222.o(.text.MX_CAN1_Init) for MX_CAN1_Init
    lto-llvm-af9222.o(.text.main) refers to lto-llvm-af9222.o(.text.MX_CAN2_Init) for MX_CAN2_Init
    lto-llvm-af9222.o(.text.main) refers to lto-llvm-af9222.o(.text.MX_I2C3_Init) for MX_I2C3_Init
    lto-llvm-af9222.o(.text.main) refers to lto-llvm-af9222.o(.text.MX_SPI1_Init) for MX_SPI1_Init
    lto-llvm-af9222.o(.text.main) refers to lto-llvm-af9222.o(.text.MX_SPI2_Init) for MX_SPI2_Init
    lto-llvm-af9222.o(.text.main) refers to lto-llvm-af9222.o(.text.MX_IWDG_Init) for MX_IWDG_Init
    lto-llvm-af9222.o(.text.main) refers to lto-llvm-af9222.o(.text.MX_USB_DEVICE_Init) for MX_USB_DEVICE_Init
    lto-llvm-af9222.o(.text.main) refers to lto-llvm-af9222.o(.bss.htim5) for htim5
    lto-llvm-af9222.o(.text.main) refers to lto-llvm-af9222.o(.text.HAL_TIM_Base_Start_IT) for HAL_TIM_Base_Start_IT
    lto-llvm-af9222.o(.text.main) refers to lto-llvm-af9222.o(.text.HAL_TIM_PWM_Start) for HAL_TIM_PWM_Start
    lto-llvm-af9222.o(.text.main) refers to lto-llvm-af9222.o(.text._ZN13RemoteControl4initEv) for RemoteControl::init()
    lto-llvm-af9222.o(.text.main) refers to lto-llvm-af9222.o(.text._Z14bsp_flash_readP12flash_data_t) for bsp_flash_read(flash_data_t*)
    lto-llvm-af9222.o(.text.main) refers to lto-llvm-af9222.o(.bss.htim10) for htim10
    lto-llvm-af9222.o(.text.main) refers to lto-llvm-af9222.o(.text._ZN5Motor4InitEv) for Motor::Init()
    lto-llvm-af9222.o(.text.main) refers to lto-llvm-af9222.o(.bss.init_Flag) for init_Flag
    lto-llvm-af9222.o(.ARM.exidx.text.main) refers to lto-llvm-af9222.o(.text.main) for [Anonymous Symbol]
    lto-llvm-af9222.o(.text._ZN5Motor6HandleEv) refers to lto-llvm-af9222.o(.text._ZN5Motor16MotorStateUpdateEv) for Motor::MotorStateUpdate()
    lto-llvm-af9222.o(.text._ZN5Motor6HandleEv) refers to lto-llvm-af9222.o(.text._ZN5Motor13IntensityCalcEv) for Motor::IntensityCalc()
    lto-llvm-af9222.o(.text._ZN5Motor6HandleEv) refers to lto-llvm-af9222.o(.text._Z4log2B6v16000IjENSt3__29enable_ifIXsr3std11is_integralIT_EE5valueEdE4typeES2_) for std::__2::enable_if<std::is_integral<unsigned int>::value, double>::type log2[abi:v16000]<unsigned int>(unsigned int)
    lto-llvm-af9222.o(.text._ZN5Motor6HandleEv) refers to dfixui.o(.text) for __aeabi_d2uiz
    lto-llvm-af9222.o(.text._ZN5Motor6HandleEv) refers to lto-llvm-af9222.o(.bss._ZN5Motor15motor_intensityE) for Motor::motor_intensity
    lto-llvm-af9222.o(.ARM.exidx.text._ZN5Motor6HandleEv) refers to lto-llvm-af9222.o(.text._ZN5Motor6HandleEv) for [Anonymous Symbol]
    lto-llvm-af9222.o(.ARM.exidx.text._ZN5Motor11ErrorHandleEv) refers to lto-llvm-af9222.o(.text._ZN5Motor11ErrorHandleEv) for [Anonymous Symbol]
    lto-llvm-af9222.o(.text._ZN5Motor16MotorStateUpdateEv) refers to lto-llvm-af9222.o(.bss._ZZN5Motor16MotorStateUpdateEvE8lastRead) for Motor::MotorStateUpdate()::lastRead
    lto-llvm-af9222.o(.ARM.exidx.text._ZN5Motor16MotorStateUpdateEv) refers to lto-llvm-af9222.o(.text._ZN5Motor16MotorStateUpdateEv) for [Anonymous Symbol]
    lto-llvm-af9222.o(.text._ZN5Motor13IntensityCalcEv) refers to lto-llvm-af9222.o(.text._ZN3PID7PIDCalcEff) for PID::PIDCalc(float, float)
    lto-llvm-af9222.o(.ARM.exidx.text._ZN5Motor13IntensityCalcEv) refers to lto-llvm-af9222.o(.text._ZN5Motor13IntensityCalcEv) for [Anonymous Symbol]
    lto-llvm-af9222.o(.text._Z4log2B6v16000IjENSt3__29enable_ifIXsr3std11is_integralIT_EE5valueEdE4typeES2_) refers to dfltui.o(.text) for __aeabi_ui2d
    lto-llvm-af9222.o(.text._Z4log2B6v16000IjENSt3__29enable_ifIXsr3std11is_integralIT_EE5valueEdE4typeES2_) refers to log2.o(i.__hardfp_log2) for __hardfp_log2
    lto-llvm-af9222.o(.ARM.exidx.text._Z4log2B6v16000IjENSt3__29enable_ifIXsr3std11is_integralIT_EE5valueEdE4typeES2_) refers to lto-llvm-af9222.o(.text._Z4log2B6v16000IjENSt3__29enable_ifIXsr3std11is_integralIT_EE5valueEdE4typeES2_) for [Anonymous Symbol]
    lto-llvm-af9222.o(.ARM.exidx.text._ZN3PID7PIDCalcEff) refers to lto-llvm-af9222.o(.text._ZN3PID7PIDCalcEff) for [Anonymous Symbol]
    lto-llvm-af9222.o(.text._ZN5Motor4InitEv) refers to lto-llvm-af9222.o(.bss.hcan1) for hcan1
    lto-llvm-af9222.o(.text._ZN5Motor4InitEv) refers to lto-llvm-af9222.o(.text.HAL_CAN_Start) for HAL_CAN_Start
    lto-llvm-af9222.o(.text._ZN5Motor4InitEv) refers to lto-llvm-af9222.o(.bss.hcan2) for hcan2
    lto-llvm-af9222.o(.text._ZN5Motor4InitEv) refers to lto-llvm-af9222.o(.text.HAL_CAN_ActivateNotification) for HAL_CAN_ActivateNotification
    lto-llvm-af9222.o(.text._ZN5Motor4InitEv) refers to lto-llvm-af9222.o(.text.HAL_CAN_ConfigFilter) for HAL_CAN_ConfigFilter
    lto-llvm-af9222.o(.ARM.exidx.text._ZN5Motor4InitEv) refers to lto-llvm-af9222.o(.text._ZN5Motor4InitEv) for [Anonymous Symbol]
    lto-llvm-af9222.o(.text._ZN5Motor14CANPackageSendEv) refers to lto-llvm-af9222.o(.bss._ZN5Motor15motor_intensityE) for Motor::motor_intensity
    lto-llvm-af9222.o(.text._ZN5Motor14CANPackageSendEv) refers to lto-llvm-af9222.o(.bss.hcan1) for hcan1
    lto-llvm-af9222.o(.text._ZN5Motor14CANPackageSendEv) refers to lto-llvm-af9222.o(.text.HAL_CAN_AddTxMessage) for HAL_CAN_AddTxMessage
    lto-llvm-af9222.o(.text._ZN5Motor14CANPackageSendEv) refers to lto-llvm-af9222.o(.bss.hcan2) for hcan2
    lto-llvm-af9222.o(.ARM.exidx.text._ZN5Motor14CANPackageSendEv) refers to lto-llvm-af9222.o(.text._ZN5Motor14CANPackageSendEv) for [Anonymous Symbol]
    lto-llvm-af9222.o(.text._ZN6DeviceC2Ev) refers to lto-llvm-af9222.o(.rodata._ZTV6Device) for vtable for Device
    lto-llvm-af9222.o(.ARM.exidx.text._ZN6DeviceC2Ev) refers to lto-llvm-af9222.o(.text._ZN6DeviceC2Ev) for [Anonymous Symbol]
    lto-llvm-af9222.o(.text._ZN5MotorC2EjP12MOTOR_INIT_t) refers to lto-llvm-af9222.o(.text._ZN6DeviceC2Ev) for Device::Device__sub_object()
    lto-llvm-af9222.o(.text._ZN5MotorC2EjP12MOTOR_INIT_t) refers to lto-llvm-af9222.o(.rodata._ZTV5Motor) for vtable for Motor
    lto-llvm-af9222.o(.text._ZN5MotorC2EjP12MOTOR_INIT_t) refers to lto-llvm-af9222.o(.text._Z4log2B6v16000IjENSt3__29enable_ifIXsr3std11is_integralIT_EE5valueEdE4typeES2_) for std::__2::enable_if<std::is_integral<unsigned int>::value, double>::type log2[abi:v16000]<unsigned int>(unsigned int)
    lto-llvm-af9222.o(.text._ZN5MotorC2EjP12MOTOR_INIT_t) refers to dfixui.o(.text) for __aeabi_d2uiz
    lto-llvm-af9222.o(.text._ZN5MotorC2EjP12MOTOR_INIT_t) refers to lto-llvm-af9222.o(.bss._ZN5Motor9motorPtrsE) for Motor::motorPtrs
    lto-llvm-af9222.o(.text._ZN5MotorC2EjP12MOTOR_INIT_t) refers to lto-llvm-af9222.o(.bss._ZN5Motor9motor_IDsE) for Motor::motor_IDs
    lto-llvm-af9222.o(.text._ZN5MotorC2EjP12MOTOR_INIT_t) refers to memcpya.o(.text) for __aeabi_memcpy4
    lto-llvm-af9222.o(.ARM.exidx.text._ZN5MotorC2EjP12MOTOR_INIT_t) refers to lto-llvm-af9222.o(.text._ZN5MotorC2EjP12MOTOR_INIT_t) for [Anonymous Symbol]
    lto-llvm-af9222.o(.text._ZN5MotorD2Ev) refers to lto-llvm-af9222.o(.rodata._ZTV5Motor) for vtable for Motor
    lto-llvm-af9222.o(.text._ZN5MotorD2Ev) refers to lto-llvm-af9222.o(.bss._ZN5Motor9motor_IDsE) for Motor::motor_IDs
    lto-llvm-af9222.o(.ARM.exidx.text._ZN5MotorD2Ev) refers to lto-llvm-af9222.o(.text._ZN5MotorD2Ev) for [Anonymous Symbol]
    lto-llvm-af9222.o(.text._ZN5Motor9IT_HandleEP19__CAN_HandleTypeDef) refers to lto-llvm-af9222.o(.text.HAL_CAN_GetRxMessage) for HAL_CAN_GetRxMessage
    lto-llvm-af9222.o(.text._ZN5Motor9IT_HandleEP19__CAN_HandleTypeDef) refers to lto-llvm-af9222.o(.bss.hcan1) for hcan1
    lto-llvm-af9222.o(.text._ZN5Motor9IT_HandleEP19__CAN_HandleTypeDef) refers to lto-llvm-af9222.o(.bss._ZN5Motor9motorPtrsE) for Motor::motorPtrs
    lto-llvm-af9222.o(.ARM.exidx.text._ZN5Motor9IT_HandleEP19__CAN_HandleTypeDef) refers to lto-llvm-af9222.o(.text._ZN5Motor9IT_HandleEP19__CAN_HandleTypeDef) for [Anonymous Symbol]
    lto-llvm-af9222.o(.ARM.exidx.text._ZN5Motor4StopEv) refers to lto-llvm-af9222.o(.text._ZN5Motor4StopEv) for [Anonymous Symbol]
    lto-llvm-af9222.o(.text.HAL_CAN_RxFifo0MsgPendingCallback) refers to lto-llvm-af9222.o(.text._ZN5Motor9IT_HandleEP19__CAN_HandleTypeDef) for Motor::IT_Handle(__CAN_HandleTypeDef*)
    lto-llvm-af9222.o(.ARM.exidx.text.HAL_CAN_RxFifo0MsgPendingCallback) refers to lto-llvm-af9222.o(.text.HAL_CAN_RxFifo0MsgPendingCallback) for [Anonymous Symbol]
    lto-llvm-af9222.o(.text._ZN5Servo6HandleEv) refers to f2d.o(.text) for __aeabi_f2d
    lto-llvm-af9222.o(.text._ZN5Servo6HandleEv) refers to dmul.o(.text) for __aeabi_dmul
    lto-llvm-af9222.o(.text._ZN5Servo6HandleEv) refers to dadd.o(.text) for __aeabi_dadd
    lto-llvm-af9222.o(.text._ZN5Servo6HandleEv) refers to d2f.o(.text) for __aeabi_d2f
    lto-llvm-af9222.o(.text._ZN5Servo6HandleEv) refers to lto-llvm-af9222.o(.text._Z4log2B6v16000IjENSt3__29enable_ifIXsr3std11is_integralIT_EE5valueEdE4typeES2_) for std::__2::enable_if<std::is_integral<unsigned int>::value, double>::type log2[abi:v16000]<unsigned int>(unsigned int)
    lto-llvm-af9222.o(.text._ZN5Servo6HandleEv) refers to dfixui.o(.text) for __aeabi_d2uiz
    lto-llvm-af9222.o(.text._ZN5Servo6HandleEv) refers to lto-llvm-af9222.o(.rodata._ZL9servoInfo) for servoInfo
    lto-llvm-af9222.o(.text._ZN5Servo6HandleEv) refers to lto-llvm-af9222.o(.bss.htim1) for htim1
    lto-llvm-af9222.o(.ARM.exidx.text._ZN5Servo6HandleEv) refers to lto-llvm-af9222.o(.text._ZN5Servo6HandleEv) for [Anonymous Symbol]
    lto-llvm-af9222.o(.ARM.exidx.text._ZN5Servo11ErrorHandleEv) refers to lto-llvm-af9222.o(.text._ZN5Servo11ErrorHandleEv) for [Anonymous Symbol]
    lto-llvm-af9222.o(.text._ZN5ServoC2EP12SERVO_INIT_T) refers to lto-llvm-af9222.o(.text._ZN6DeviceC2Ev) for Device::Device__sub_object()
    lto-llvm-af9222.o(.text._ZN5ServoC2EP12SERVO_INIT_T) refers to lto-llvm-af9222.o(.rodata._ZTV5Servo) for vtable for Servo
    lto-llvm-af9222.o(.text._ZN5ServoC2EP12SERVO_INIT_T) refers to lto-llvm-af9222.o(.bss._ZN5Servo9servo_IDsE) for Servo::servo_IDs
    lto-llvm-af9222.o(.text._ZN5ServoC2EP12SERVO_INIT_T) refers to f2d.o(.text) for __aeabi_f2d
    lto-llvm-af9222.o(.text._ZN5ServoC2EP12SERVO_INIT_T) refers to dmul.o(.text) for __aeabi_dmul
    lto-llvm-af9222.o(.text._ZN5ServoC2EP12SERVO_INIT_T) refers to dadd.o(.text) for __aeabi_dadd
    lto-llvm-af9222.o(.text._ZN5ServoC2EP12SERVO_INIT_T) refers to d2f.o(.text) for __aeabi_d2f
    lto-llvm-af9222.o(.text._ZN5ServoC2EP12SERVO_INIT_T) refers to lto-llvm-af9222.o(.text._Z4log2B6v16000IjENSt3__29enable_ifIXsr3std11is_integralIT_EE5valueEdE4typeES2_) for std::__2::enable_if<std::is_integral<unsigned int>::value, double>::type log2[abi:v16000]<unsigned int>(unsigned int)
    lto-llvm-af9222.o(.text._ZN5ServoC2EP12SERVO_INIT_T) refers to dfixui.o(.text) for __aeabi_d2uiz
    lto-llvm-af9222.o(.text._ZN5ServoC2EP12SERVO_INIT_T) refers to lto-llvm-af9222.o(.rodata._ZL9servoInfo) for servoInfo
    lto-llvm-af9222.o(.text._ZN5ServoC2EP12SERVO_INIT_T) refers to lto-llvm-af9222.o(.bss.htim1) for htim1
    lto-llvm-af9222.o(.ARM.exidx.text._ZN5ServoC2EP12SERVO_INIT_T) refers to lto-llvm-af9222.o(.text._ZN5ServoC2EP12SERVO_INIT_T) for [Anonymous Symbol]
    lto-llvm-af9222.o(.text._ZN5Servo4stopEv) refers to lto-llvm-af9222.o(.bss.ClawServo) for ClawServo
    lto-llvm-af9222.o(.text._ZN5Servo4stopEv) refers to lto-llvm-af9222.o(.text._Z4log2B6v16000IjENSt3__29enable_ifIXsr3std11is_integralIT_EE5valueEdE4typeES2_) for std::__2::enable_if<std::is_integral<unsigned int>::value, double>::type log2[abi:v16000]<unsigned int>(unsigned int)
    lto-llvm-af9222.o(.text._ZN5Servo4stopEv) refers to dfixui.o(.text) for __aeabi_d2uiz
    lto-llvm-af9222.o(.text._ZN5Servo4stopEv) refers to lto-llvm-af9222.o(.rodata._ZL9servoInfo) for servoInfo
    lto-llvm-af9222.o(.text._ZN5Servo4stopEv) refers to lto-llvm-af9222.o(.text.HAL_TIM_PWM_Stop) for HAL_TIM_PWM_Stop
    lto-llvm-af9222.o(.ARM.exidx.text._ZN5Servo4stopEv) refers to lto-llvm-af9222.o(.text._ZN5Servo4stopEv) for [Anonymous Symbol]
    lto-llvm-af9222.o(.text._ZN5Servo14SetTargetAngleEf) refers to lto-llvm-af9222.o(.bss.ClawServo) for ClawServo
    lto-llvm-af9222.o(.text._ZN5Servo14SetTargetAngleEf) refers to lto-llvm-af9222.o(.text._Z4log2B6v16000IjENSt3__29enable_ifIXsr3std11is_integralIT_EE5valueEdE4typeES2_) for std::__2::enable_if<std::is_integral<unsigned int>::value, double>::type log2[abi:v16000]<unsigned int>(unsigned int)
    lto-llvm-af9222.o(.text._ZN5Servo14SetTargetAngleEf) refers to dfixui.o(.text) for __aeabi_d2uiz
    lto-llvm-af9222.o(.text._ZN5Servo14SetTargetAngleEf) refers to lto-llvm-af9222.o(.rodata._ZL9servoInfo) for servoInfo
    lto-llvm-af9222.o(.text._ZN5Servo14SetTargetAngleEf) refers to lto-llvm-af9222.o(.text.HAL_TIM_PWM_Start) for HAL_TIM_PWM_Start
    lto-llvm-af9222.o(.ARM.exidx.text._ZN5Servo14SetTargetAngleEf) refers to lto-llvm-af9222.o(.text._ZN5Servo14SetTargetAngleEf) for [Anonymous Symbol]
    lto-llvm-af9222.o(.text._ZN13RemoteControl4initEv) refers to lto-llvm-af9222.o(.bss.huart3) for huart3
    lto-llvm-af9222.o(.text._ZN13RemoteControl4initEv) refers to lto-llvm-af9222.o(.bss.hdma_usart3_rx) for hdma_usart3_rx
    lto-llvm-af9222.o(.text._ZN13RemoteControl4initEv) refers to lto-llvm-af9222.o(.bss._ZN13RemoteControl11sbus_rx_bufE) for RemoteControl::sbus_rx_buf
    lto-llvm-af9222.o(.ARM.exidx.text._ZN13RemoteControl4initEv) refers to lto-llvm-af9222.o(.text._ZN13RemoteControl4initEv) for [Anonymous Symbol]
    lto-llvm-af9222.o(.text._ZN13RemoteControl10sbus_to_rcEPVKh) refers to lto-llvm-af9222.o(.bss._ZN13RemoteControl7rc_ctrlE.0) for RemoteControl::rc_ctrl (.0)
    lto-llvm-af9222.o(.text._ZN13RemoteControl10sbus_to_rcEPVKh) refers to lto-llvm-af9222.o(.bss._ZN13RemoteControl7rc_ctrlE.1) for RemoteControl::rc_ctrl (.1)
    lto-llvm-af9222.o(.text._ZN13RemoteControl10sbus_to_rcEPVKh) refers to lto-llvm-af9222.o(.bss._ZN13RemoteControl7rc_ctrlE.2) for RemoteControl::rc_ctrl (.2)
    lto-llvm-af9222.o(.text._ZN13RemoteControl10sbus_to_rcEPVKh) refers to lto-llvm-af9222.o(.bss._ZN13RemoteControl7rc_ctrlE.3) for RemoteControl::rc_ctrl (.3)
    lto-llvm-af9222.o(.text._ZN13RemoteControl10sbus_to_rcEPVKh) refers to lto-llvm-af9222.o(.bss._ZN13RemoteControl7rc_ctrlE.4) for RemoteControl::rc_ctrl (.4)
    lto-llvm-af9222.o(.text._ZN13RemoteControl10sbus_to_rcEPVKh) refers to lto-llvm-af9222.o(.bss._ZN13RemoteControl7rc_ctrlE.5) for RemoteControl::rc_ctrl (.5)
    lto-llvm-af9222.o(.text._ZN13RemoteControl10sbus_to_rcEPVKh) refers to lto-llvm-af9222.o(.bss._ZN13RemoteControl6rcInfoE.0) for RemoteControl::rcInfo (.0)
    lto-llvm-af9222.o(.text._ZN13RemoteControl10sbus_to_rcEPVKh) refers to lto-llvm-af9222.o(.bss._ZN13RemoteControl6rcInfoE.4) for RemoteControl::rcInfo (.4)
    lto-llvm-af9222.o(.text._ZN13RemoteControl10sbus_to_rcEPVKh) refers to lto-llvm-af9222.o(.bss._ZN13RemoteControl6rcInfoE.5) for RemoteControl::rcInfo (.5)
    lto-llvm-af9222.o(.ARM.exidx.text._ZN13RemoteControl10sbus_to_rcEPVKh) refers to lto-llvm-af9222.o(.text._ZN13RemoteControl10sbus_to_rcEPVKh) for [Anonymous Symbol]
    lto-llvm-af9222.o(.text._ZN13RemoteControl8ITHandleEv) refers to lto-llvm-af9222.o(.bss.huart3) for huart3
    lto-llvm-af9222.o(.text._ZN13RemoteControl8ITHandleEv) refers to lto-llvm-af9222.o(.bss.hdma_usart3_rx) for hdma_usart3_rx
    lto-llvm-af9222.o(.text._ZN13RemoteControl8ITHandleEv) refers to lto-llvm-af9222.o(.bss._ZZN13RemoteControl8ITHandleEvE16this_time_rx_len) for RemoteControl::ITHandle()::this_time_rx_len
    lto-llvm-af9222.o(.text._ZN13RemoteControl8ITHandleEv) refers to lto-llvm-af9222.o(.bss._ZN13RemoteControl11sbus_rx_bufE) for RemoteControl::sbus_rx_buf
    lto-llvm-af9222.o(.text._ZN13RemoteControl8ITHandleEv) refers to lto-llvm-af9222.o(.text.HAL_IWDG_Refresh) for HAL_IWDG_Refresh
    lto-llvm-af9222.o(.text._ZN13RemoteControl8ITHandleEv) refers to lto-llvm-af9222.o(.text._ZN13RemoteControl10sbus_to_rcEPVKh) for RemoteControl::sbus_to_rc(unsigned char const volatile*)
    lto-llvm-af9222.o(.ARM.exidx.text._ZN13RemoteControl8ITHandleEv) refers to lto-llvm-af9222.o(.text._ZN13RemoteControl8ITHandleEv) for [Anonymous Symbol]
    lto-llvm-af9222.o(.text.USART3_IRQHandler) refers to lto-llvm-af9222.o(.text._ZN13RemoteControl8ITHandleEv) for RemoteControl::ITHandle()
    lto-llvm-af9222.o(.ARM.exidx.text.USART3_IRQHandler) refers to lto-llvm-af9222.o(.text.USART3_IRQHandler) for [Anonymous Symbol]
    lto-llvm-af9222.o(.data.USBD_Interface_fops_FS) refers to lto-llvm-af9222.o(.text.CDC_Init_FS) for CDC_Init_FS
    lto-llvm-af9222.o(.data.USBD_Interface_fops_FS) refers to lto-llvm-af9222.o(.text.CDC_DeInit_FS) for CDC_DeInit_FS
    lto-llvm-af9222.o(.data.USBD_Interface_fops_FS) refers to lto-llvm-af9222.o(.text.CDC_Control_FS) for CDC_Control_FS
    lto-llvm-af9222.o(.data.USBD_Interface_fops_FS) refers to lto-llvm-af9222.o(.text.CDC_Receive_FS) for CDC_Receive_FS
    lto-llvm-af9222.o(.data.FS_Desc) refers to lto-llvm-af9222.o(.text.USBD_FS_DeviceDescriptor) for USBD_FS_DeviceDescriptor
    lto-llvm-af9222.o(.data.FS_Desc) refers to lto-llvm-af9222.o(.text.USBD_FS_LangIDStrDescriptor) for USBD_FS_LangIDStrDescriptor
    lto-llvm-af9222.o(.data.FS_Desc) refers to lto-llvm-af9222.o(.text.USBD_FS_ManufacturerStrDescriptor) for USBD_FS_ManufacturerStrDescriptor
    lto-llvm-af9222.o(.data.FS_Desc) refers to lto-llvm-af9222.o(.text.USBD_FS_ProductStrDescriptor) for USBD_FS_ProductStrDescriptor
    lto-llvm-af9222.o(.data.FS_Desc) refers to lto-llvm-af9222.o(.text.USBD_FS_SerialStrDescriptor) for USBD_FS_SerialStrDescriptor
    lto-llvm-af9222.o(.data.FS_Desc) refers to lto-llvm-af9222.o(.text.USBD_FS_ConfigStrDescriptor) for USBD_FS_ConfigStrDescriptor
    lto-llvm-af9222.o(.data.FS_Desc) refers to lto-llvm-af9222.o(.text.USBD_FS_InterfaceStrDescriptor) for USBD_FS_InterfaceStrDescriptor
    lto-llvm-af9222.o(.data.USBD_CDC) refers to lto-llvm-af9222.o(.text.USBD_CDC_Init) for USBD_CDC_Init
    lto-llvm-af9222.o(.data.USBD_CDC) refers to lto-llvm-af9222.o(.text.USBD_CDC_DeInit) for USBD_CDC_DeInit
    lto-llvm-af9222.o(.data.USBD_CDC) refers to lto-llvm-af9222.o(.text.USBD_CDC_Setup) for USBD_CDC_Setup
    lto-llvm-af9222.o(.data.USBD_CDC) refers to lto-llvm-af9222.o(.text.USBD_CDC_EP0_RxReady) for USBD_CDC_EP0_RxReady
    lto-llvm-af9222.o(.data.USBD_CDC) refers to lto-llvm-af9222.o(.text.USBD_CDC_DataIn) for USBD_CDC_DataIn
    lto-llvm-af9222.o(.data.USBD_CDC) refers to lto-llvm-af9222.o(.text.USBD_CDC_DataOut) for USBD_CDC_DataOut
    lto-llvm-af9222.o(.data.USBD_CDC) refers to lto-llvm-af9222.o(.text.USBD_CDC_GetHSCfgDesc) for USBD_CDC_GetHSCfgDesc
    lto-llvm-af9222.o(.data.USBD_CDC) refers to lto-llvm-af9222.o(.text.USBD_CDC_GetFSCfgDesc) for USBD_CDC_GetFSCfgDesc
    lto-llvm-af9222.o(.data.USBD_CDC) refers to lto-llvm-af9222.o(.text.USBD_CDC_GetOtherSpeedCfgDesc) for USBD_CDC_GetOtherSpeedCfgDesc
    lto-llvm-af9222.o(.data.USBD_CDC) refers to lto-llvm-af9222.o(.text.USBD_CDC_GetDeviceQualifierDescriptor) for USBD_CDC_GetDeviceQualifierDescriptor
    lto-llvm-af9222.o(.init_array) refers to lto-llvm-af9222.o(.text._GLOBAL__sub_I_ChassisTask.cpp) for _GLOBAL__sub_I_ChassisTask.cpp
    lto-llvm-af9222.o(.init_array) refers to lto-llvm-af9222.o(.text._GLOBAL__sub_I_UserTask.cpp) for _GLOBAL__sub_I_UserTask.cpp
    lto-llvm-af9222.o(.data.chassisMotorInit) refers to lto-llvm-af9222.o(.data.pidRegulator) for [Anonymous Symbol]
    lto-llvm-af9222.o(.data.userMotorInit) refers to lto-llvm-af9222.o(.data.userPidRegulator) for [Anonymous Symbol]
    lto-llvm-af9222.o(.rodata._ZTV5Motor) refers to lto-llvm-af9222.o(.text._ZN5Motor6HandleEv) for Motor::Handle()
    lto-llvm-af9222.o(.rodata._ZTV5Motor) refers to lto-llvm-af9222.o(.text._ZN5Motor11ErrorHandleEv) for Motor::ErrorHandle()
    lto-llvm-af9222.o(.rodata._ZTV5Servo) refers to lto-llvm-af9222.o(.text._ZN5Servo6HandleEv) for Servo::Handle()
    lto-llvm-af9222.o(.rodata._ZTV5Servo) refers to lto-llvm-af9222.o(.text._ZN5Servo11ErrorHandleEv) for Servo::ErrorHandle()
    lto-llvm-af9222.o(.rodata._ZL9servoInfo) refers to lto-llvm-af9222.o(.bss.htim1) for [Anonymous Symbol]
    lto-llvm-af9222.o(.rodata._ZL9servoInfo) refers to lto-llvm-af9222.o(.bss.htim8) for [Anonymous Symbol]
    lto-llvm-af9222.o(.rodata._ZTV6Device) refers to cxa_virtual.cpp.o(.text.__cxa_pure_virtual) for __cxa_pure_virtual
    cpp_init.o(.emb_text) refers (Special) to entry8a.o(.ARM.Collect$$$$00000009) for _main_cpp_init$empty
    cpp_init.o(.init_array) refers (Special) to entry8a.o(.ARM.Collect$$$$00000009) for _main_cpp_init$empty
    cpp_init.o(.dummy_text) refers (Special) to entry8a.o(.ARM.Collect$$$$00000009) for _main_cpp_init$empty
    cpp_init.o(.text) refers (Special) to entry8a.o(.ARM.Collect$$$$00000009) for _main_cpp_init$empty
    dfltui.o(.text) refers (Special) to iusefp.o(.text) for __I$use$fp
    dfltui.o(.text) refers to depilogue.o(.text) for _double_epilogue
    dfixui.o(.text) refers (Special) to iusefp.o(.text) for __I$use$fp
    dfixui.o(.text) refers to llushr.o(.text) for __aeabi_llsr
    f2d.o(.text) refers (Special) to iusefp.o(.text) for __I$use$fp
    d2f.o(.text) refers (Special) to iusefp.o(.text) for __I$use$fp
    d2f.o(.text) refers to fepilogue.o(.text) for _float_round
    fepilogue.o(.text) refers (Special) to iusefp.o(.text) for __I$use$fp


==============================================================================

Removing Unused input sections from the image.

    Removing cxa_virtual.cpp.o(.text), (0 bytes).
    Removing cxa_virtual.cpp.o(.ARM.exidx.text.__cxa_pure_virtual), (8 bytes).
    Removing cxa_virtual.cpp.o(.text.__cxa_deleted_virtual), (44 bytes).
    Removing cxa_virtual.cpp.o(.ARM.exidx.text.__cxa_deleted_virtual), (8 bytes).
    Removing abort_message.cpp.o(.text), (0 bytes).
    Removing abort_message.cpp.o(.ARM.exidx.text.abort_message), (8 bytes).
    Removing dfixul.o(.text), (48 bytes).
    Removing cdrcmple.o(.text), (48 bytes).
    Removing dneg.o(.text), (6 bytes).
    Removing lto-llvm-af9222.o(.text), (0 bytes).
    Removing lto-llvm-af9222.o(.ARM.exidx.text.SystemClock_Config), (8 bytes).
    Removing lto-llvm-af9222.o(.text.Error_Handler), (2 bytes).
    Removing lto-llvm-af9222.o(.ARM.exidx.text.Error_Handler), (8 bytes).
    Removing lto-llvm-af9222.o(.ARM.exidx.text.MX_GPIO_Init), (8 bytes).
    Removing lto-llvm-af9222.o(.ARM.exidx.text.MX_TIM1_Init), (8 bytes).
    Removing lto-llvm-af9222.o(.ARM.exidx.text.HAL_TIM_MspPostInit), (8 bytes).
    Removing lto-llvm-af9222.o(.ARM.exidx.text.MX_TIM4_Init), (8 bytes).
    Removing lto-llvm-af9222.o(.ARM.exidx.text.MX_TIM5_Init), (8 bytes).
    Removing lto-llvm-af9222.o(.ARM.exidx.text.MX_TIM8_Init), (8 bytes).
    Removing lto-llvm-af9222.o(.ARM.exidx.text.MX_TIM10_Init), (8 bytes).
    Removing lto-llvm-af9222.o(.ARM.exidx.text.HAL_TIM_Base_MspInit), (8 bytes).
    Removing lto-llvm-af9222.o(.ARM.exidx.text.NMI_Handler), (8 bytes).
    Removing lto-llvm-af9222.o(.ARM.exidx.text.HardFault_Handler), (8 bytes).
    Removing lto-llvm-af9222.o(.ARM.exidx.text.MemManage_Handler), (8 bytes).
    Removing lto-llvm-af9222.o(.ARM.exidx.text.BusFault_Handler), (8 bytes).
    Removing lto-llvm-af9222.o(.ARM.exidx.text.UsageFault_Handler), (8 bytes).
    Removing lto-llvm-af9222.o(.ARM.exidx.text.SVC_Handler), (8 bytes).
    Removing lto-llvm-af9222.o(.ARM.exidx.text.DebugMon_Handler), (8 bytes).
    Removing lto-llvm-af9222.o(.ARM.exidx.text.PendSV_Handler), (8 bytes).
    Removing lto-llvm-af9222.o(.ARM.exidx.text.SysTick_Handler), (8 bytes).
    Removing lto-llvm-af9222.o(.ARM.exidx.text.EXTI0_IRQHandler), (8 bytes).
    Removing lto-llvm-af9222.o(.ARM.exidx.text.EXTI3_IRQHandler), (8 bytes).
    Removing lto-llvm-af9222.o(.ARM.exidx.text.DMA1_Stream1_IRQHandler), (8 bytes).
    Removing lto-llvm-af9222.o(.ARM.exidx.text.CAN1_RX0_IRQHandler), (8 bytes).
    Removing lto-llvm-af9222.o(.ARM.exidx.text.TIM1_UP_TIM10_IRQHandler), (8 bytes).
    Removing lto-llvm-af9222.o(.ARM.exidx.text.USART1_IRQHandler), (8 bytes).
    Removing lto-llvm-af9222.o(.ARM.exidx.text.DMA2_Stream2_IRQHandler), (8 bytes).
    Removing lto-llvm-af9222.o(.ARM.exidx.text.CAN2_RX0_IRQHandler), (8 bytes).
    Removing lto-llvm-af9222.o(.ARM.exidx.text.OTG_FS_IRQHandler), (8 bytes).
    Removing lto-llvm-af9222.o(.ARM.exidx.text.DMA2_Stream7_IRQHandler), (8 bytes).
    Removing lto-llvm-af9222.o(.ARM.exidx.text.USART6_IRQHandler), (8 bytes).
    Removing lto-llvm-af9222.o(.ARM.exidx.text.HAL_MspInit), (8 bytes).
    Removing lto-llvm-af9222.o(.ARM.exidx.text.MX_ADC1_Init), (8 bytes).
    Removing lto-llvm-af9222.o(.ARM.exidx.text.MX_ADC3_Init), (8 bytes).
    Removing lto-llvm-af9222.o(.ARM.exidx.text.HAL_ADC_MspInit), (8 bytes).
    Removing lto-llvm-af9222.o(.ARM.exidx.text.MX_USART1_UART_Init), (8 bytes).
    Removing lto-llvm-af9222.o(.ARM.exidx.text.MX_USART3_UART_Init), (8 bytes).
    Removing lto-llvm-af9222.o(.ARM.exidx.text.MX_USART6_UART_Init), (8 bytes).
    Removing lto-llvm-af9222.o(.ARM.exidx.text.HAL_UART_MspInit), (8 bytes).
    Removing lto-llvm-af9222.o(.ARM.exidx.text.MX_DMA_Init), (8 bytes).
    Removing lto-llvm-af9222.o(.ARM.exidx.text.MX_CAN1_Init), (8 bytes).
    Removing lto-llvm-af9222.o(.ARM.exidx.text.MX_CAN2_Init), (8 bytes).
    Removing lto-llvm-af9222.o(.ARM.exidx.text.HAL_CAN_MspInit), (8 bytes).
    Removing lto-llvm-af9222.o(.ARM.exidx.text.MX_I2C3_Init), (8 bytes).
    Removing lto-llvm-af9222.o(.ARM.exidx.text.HAL_I2C_MspInit), (8 bytes).
    Removing lto-llvm-af9222.o(.ARM.exidx.text.MX_SPI1_Init), (8 bytes).
    Removing lto-llvm-af9222.o(.ARM.exidx.text.MX_SPI2_Init), (8 bytes).
    Removing lto-llvm-af9222.o(.ARM.exidx.text.HAL_SPI_MspInit), (8 bytes).
    Removing lto-llvm-af9222.o(.ARM.exidx.text.MX_IWDG_Init), (8 bytes).
    Removing lto-llvm-af9222.o(.ARM.exidx.text.MX_USB_DEVICE_Init), (8 bytes).
    Removing lto-llvm-af9222.o(.ARM.exidx.text.CDC_Init_FS), (8 bytes).
    Removing lto-llvm-af9222.o(.ARM.exidx.text.CDC_DeInit_FS), (8 bytes).
    Removing lto-llvm-af9222.o(.ARM.exidx.text.CDC_Control_FS), (8 bytes).
    Removing lto-llvm-af9222.o(.ARM.exidx.text.CDC_Receive_FS), (8 bytes).
    Removing lto-llvm-af9222.o(.ARM.exidx.text.HAL_PCD_MspInit), (8 bytes).
    Removing lto-llvm-af9222.o(.ARM.exidx.text.HAL_PCD_SetupStageCallback), (8 bytes).
    Removing lto-llvm-af9222.o(.ARM.exidx.text.HAL_PCD_DataOutStageCallback), (8 bytes).
    Removing lto-llvm-af9222.o(.ARM.exidx.text.HAL_PCD_DataInStageCallback), (8 bytes).
    Removing lto-llvm-af9222.o(.ARM.exidx.text.HAL_PCD_SOFCallback), (8 bytes).
    Removing lto-llvm-af9222.o(.ARM.exidx.text.HAL_PCD_ResetCallback), (8 bytes).
    Removing lto-llvm-af9222.o(.ARM.exidx.text.HAL_PCD_SuspendCallback), (8 bytes).
    Removing lto-llvm-af9222.o(.ARM.exidx.text.HAL_PCD_ResumeCallback), (8 bytes).
    Removing lto-llvm-af9222.o(.ARM.exidx.text.HAL_PCD_ISOOUTIncompleteCallback), (8 bytes).
    Removing lto-llvm-af9222.o(.ARM.exidx.text.HAL_PCD_ISOINIncompleteCallback), (8 bytes).
    Removing lto-llvm-af9222.o(.ARM.exidx.text.HAL_PCD_ConnectCallback), (8 bytes).
    Removing lto-llvm-af9222.o(.ARM.exidx.text.HAL_PCD_DisconnectCallback), (8 bytes).
    Removing lto-llvm-af9222.o(.ARM.exidx.text.USBD_LL_Init), (8 bytes).
    Removing lto-llvm-af9222.o(.ARM.exidx.text.USBD_Get_USB_Status), (8 bytes).
    Removing lto-llvm-af9222.o(.ARM.exidx.text.USBD_LL_Start), (8 bytes).
    Removing lto-llvm-af9222.o(.ARM.exidx.text.USBD_LL_OpenEP), (8 bytes).
    Removing lto-llvm-af9222.o(.ARM.exidx.text.USBD_LL_CloseEP), (8 bytes).
    Removing lto-llvm-af9222.o(.ARM.exidx.text.USBD_LL_StallEP), (8 bytes).
    Removing lto-llvm-af9222.o(.ARM.exidx.text.USBD_LL_ClearStallEP), (8 bytes).
    Removing lto-llvm-af9222.o(.ARM.exidx.text.USBD_LL_IsStallEP), (8 bytes).
    Removing lto-llvm-af9222.o(.ARM.exidx.text.USBD_LL_SetUSBAddress), (8 bytes).
    Removing lto-llvm-af9222.o(.ARM.exidx.text.USBD_LL_Transmit), (8 bytes).
    Removing lto-llvm-af9222.o(.ARM.exidx.text.USBD_LL_PrepareReceive), (8 bytes).
    Removing lto-llvm-af9222.o(.ARM.exidx.text.USBD_LL_GetRxDataSize), (8 bytes).
    Removing lto-llvm-af9222.o(.ARM.exidx.text.USBD_FS_DeviceDescriptor), (8 bytes).
    Removing lto-llvm-af9222.o(.ARM.exidx.text.USBD_FS_LangIDStrDescriptor), (8 bytes).
    Removing lto-llvm-af9222.o(.ARM.exidx.text.USBD_FS_ManufacturerStrDescriptor), (8 bytes).
    Removing lto-llvm-af9222.o(.ARM.exidx.text.USBD_FS_ProductStrDescriptor), (8 bytes).
    Removing lto-llvm-af9222.o(.ARM.exidx.text.USBD_FS_SerialStrDescriptor), (8 bytes).
    Removing lto-llvm-af9222.o(.ARM.exidx.text.USBD_FS_ConfigStrDescriptor), (8 bytes).
    Removing lto-llvm-af9222.o(.ARM.exidx.text.USBD_FS_InterfaceStrDescriptor), (8 bytes).
    Removing lto-llvm-af9222.o(.ARM.exidx.text.Get_SerialNum), (8 bytes).
    Removing lto-llvm-af9222.o(.ARM.exidx.text.IntToUnicode), (8 bytes).
    Removing lto-llvm-af9222.o(.ARM.exidx.text.HAL_TIM_Base_Init), (8 bytes).
    Removing lto-llvm-af9222.o(.ARM.exidx.text.TIM_Base_SetConfig), (8 bytes).
    Removing lto-llvm-af9222.o(.ARM.exidx.text.HAL_TIM_Base_Start_IT), (8 bytes).
    Removing lto-llvm-af9222.o(.ARM.exidx.text.TIM_CCxChannelCmd), (8 bytes).
    Removing lto-llvm-af9222.o(.ARM.exidx.text.HAL_TIM_PWM_PulseFinishedCallback), (8 bytes).
    Removing lto-llvm-af9222.o(.ARM.exidx.text.HAL_TIM_PWM_Init), (8 bytes).
    Removing lto-llvm-af9222.o(.ARM.exidx.text.HAL_TIM_PWM_MspInit), (8 bytes).
    Removing lto-llvm-af9222.o(.ARM.exidx.text.HAL_TIM_PWM_Start), (8 bytes).
    Removing lto-llvm-af9222.o(.ARM.exidx.text.HAL_TIM_PWM_Stop), (8 bytes).
    Removing lto-llvm-af9222.o(.ARM.exidx.text.HAL_TIM_IC_CaptureCallback), (8 bytes).
    Removing lto-llvm-af9222.o(.ARM.exidx.text.HAL_TIM_IRQHandler), (8 bytes).
    Removing lto-llvm-af9222.o(.ARM.exidx.text.HAL_TIM_OC_DelayElapsedCallback), (8 bytes).
    Removing lto-llvm-af9222.o(.ARM.exidx.text.HAL_TIM_TriggerCallback), (8 bytes).
    Removing lto-llvm-af9222.o(.ARM.exidx.text.TIM_OC1_SetConfig), (8 bytes).
    Removing lto-llvm-af9222.o(.ARM.exidx.text.TIM_OC2_SetConfig), (8 bytes).
    Removing lto-llvm-af9222.o(.ARM.exidx.text.TIM_OC3_SetConfig), (8 bytes).
    Removing lto-llvm-af9222.o(.ARM.exidx.text.TIM_OC4_SetConfig), (8 bytes).
    Removing lto-llvm-af9222.o(.ARM.exidx.text.HAL_TIM_PWM_ConfigChannel), (8 bytes).
    Removing lto-llvm-af9222.o(.ARM.exidx.text.TIM_ETR_SetConfig), (8 bytes).
    Removing lto-llvm-af9222.o(.ARM.exidx.text.HAL_TIM_ConfigClockSource), (8 bytes).
    Removing lto-llvm-af9222.o(.ARM.exidx.text.TIM_TI1_ConfigInputStage), (8 bytes).
    Removing lto-llvm-af9222.o(.ARM.exidx.text.TIM_ITRx_SetConfig), (8 bytes).
    Removing lto-llvm-af9222.o(.ARM.exidx.text.TIM_TI2_ConfigInputStage), (8 bytes).
    Removing lto-llvm-af9222.o(.ARM.exidx.text.HAL_TIMEx_CommutCallback), (8 bytes).
    Removing lto-llvm-af9222.o(.ARM.exidx.text.HAL_TIMEx_MasterConfigSynchronization), (8 bytes).
    Removing lto-llvm-af9222.o(.ARM.exidx.text.HAL_TIMEx_ConfigBreakDeadTime), (8 bytes).
    Removing lto-llvm-af9222.o(.ARM.exidx.text.HAL_TIMEx_BreakCallback), (8 bytes).
    Removing lto-llvm-af9222.o(.ARM.exidx.text.HAL_RCC_OscConfig), (8 bytes).
    Removing lto-llvm-af9222.o(.ARM.exidx.text.HAL_RCC_ClockConfig), (8 bytes).
    Removing lto-llvm-af9222.o(.ARM.exidx.text.HAL_RCC_GetSysClockFreq), (8 bytes).
    Removing lto-llvm-af9222.o(.ARM.exidx.text.HAL_RCC_GetHCLKFreq), (8 bytes).
    Removing lto-llvm-af9222.o(.ARM.exidx.text.HAL_RCC_GetPCLK1Freq), (8 bytes).
    Removing lto-llvm-af9222.o(.ARM.exidx.text.HAL_RCC_GetPCLK2Freq), (8 bytes).
    Removing lto-llvm-af9222.o(.ARM.exidx.text.HAL_GPIO_Init), (8 bytes).
    Removing lto-llvm-af9222.o(.ARM.exidx.text.HAL_GPIO_ReadPin), (8 bytes).
    Removing lto-llvm-af9222.o(.ARM.exidx.text.HAL_GPIO_WritePin), (8 bytes).
    Removing lto-llvm-af9222.o(.ARM.exidx.text.HAL_GPIO_EXTI_IRQHandler), (8 bytes).
    Removing lto-llvm-af9222.o(.ARM.exidx.text.HAL_DMA_Init), (8 bytes).
    Removing lto-llvm-af9222.o(.ARM.exidx.text.DMA_CheckFifoParam), (8 bytes).
    Removing lto-llvm-af9222.o(.ARM.exidx.text.DMA_CalcBaseAndBitshift), (8 bytes).
    Removing lto-llvm-af9222.o(.ARM.exidx.text.HAL_DMA_Abort_IT), (8 bytes).
    Removing lto-llvm-af9222.o(.ARM.exidx.text.HAL_DMA_IRQHandler), (8 bytes).
    Removing lto-llvm-af9222.o(.ARM.exidx.text.HAL_NVIC_SetPriorityGrouping), (8 bytes).
    Removing lto-llvm-af9222.o(.ARM.exidx.text.__NVIC_SetPriorityGrouping), (8 bytes).
    Removing lto-llvm-af9222.o(.ARM.exidx.text.HAL_NVIC_SetPriority), (8 bytes).
    Removing lto-llvm-af9222.o(.ARM.exidx.text.__NVIC_GetPriorityGrouping), (8 bytes).
    Removing lto-llvm-af9222.o(.ARM.exidx.text.NVIC_EncodePriority), (8 bytes).
    Removing lto-llvm-af9222.o(.ARM.exidx.text.__NVIC_SetPriority), (8 bytes).
    Removing lto-llvm-af9222.o(.ARM.exidx.text.HAL_NVIC_EnableIRQ), (8 bytes).
    Removing lto-llvm-af9222.o(.ARM.exidx.text.__NVIC_EnableIRQ), (8 bytes).
    Removing lto-llvm-af9222.o(.ARM.exidx.text.HAL_SYSTICK_Config), (8 bytes).
    Removing lto-llvm-af9222.o(.ARM.exidx.text.SysTick_Config), (8 bytes).
    Removing lto-llvm-af9222.o(.ARM.exidx.text.HAL_Init), (8 bytes).
    Removing lto-llvm-af9222.o(.ARM.exidx.text.HAL_InitTick), (8 bytes).
    Removing lto-llvm-af9222.o(.ARM.exidx.text.HAL_IncTick), (8 bytes).
    Removing lto-llvm-af9222.o(.ARM.exidx.text.HAL_GetTick), (8 bytes).
    Removing lto-llvm-af9222.o(.ARM.exidx.text.HAL_Delay), (8 bytes).
    Removing lto-llvm-af9222.o(.ARM.exidx.text.HAL_ADC_Init), (8 bytes).
    Removing lto-llvm-af9222.o(.ARM.exidx.text.ADC_Init), (8 bytes).
    Removing lto-llvm-af9222.o(.ARM.exidx.text.HAL_ADC_Start), (8 bytes).
    Removing lto-llvm-af9222.o(.ARM.exidx.text.HAL_ADC_Stop), (8 bytes).
    Removing lto-llvm-af9222.o(.ARM.exidx.text.HAL_ADC_PollForConversion), (8 bytes).
    Removing lto-llvm-af9222.o(.ARM.exidx.text.HAL_ADC_GetValue), (8 bytes).
    Removing lto-llvm-af9222.o(.ARM.exidx.text.HAL_ADC_ConfigChannel), (8 bytes).
    Removing lto-llvm-af9222.o(.ARM.exidx.text.HAL_UART_Init), (8 bytes).
    Removing lto-llvm-af9222.o(.ARM.exidx.text.UART_SetConfig), (8 bytes).
    Removing lto-llvm-af9222.o(.ARM.exidx.text.UART_EndRxTransfer), (8 bytes).
    Removing lto-llvm-af9222.o(.ARM.exidx.text.HAL_UART_ErrorCallback), (8 bytes).
    Removing lto-llvm-af9222.o(.ARM.exidx.text.HAL_UART_TxCpltCallback), (8 bytes).
    Removing lto-llvm-af9222.o(.ARM.exidx.text.HAL_UART_RxCpltCallback), (8 bytes).
    Removing lto-llvm-af9222.o(.ARM.exidx.text.HAL_UART_IRQHandler), (8 bytes).
    Removing lto-llvm-af9222.o(.ARM.exidx.text.UART_Receive_IT), (8 bytes).
    Removing lto-llvm-af9222.o(.ARM.exidx.text.UART_DMAAbortOnError), (8 bytes).
    Removing lto-llvm-af9222.o(.ARM.exidx.text.UART_Transmit_IT), (8 bytes).
    Removing lto-llvm-af9222.o(.ARM.exidx.text.UART_EndTransmit_IT), (8 bytes).
    Removing lto-llvm-af9222.o(.ARM.exidx.text.HAL_CAN_Init), (8 bytes).
    Removing lto-llvm-af9222.o(.ARM.exidx.text.HAL_CAN_ConfigFilter), (8 bytes).
    Removing lto-llvm-af9222.o(.ARM.exidx.text.HAL_CAN_Start), (8 bytes).
    Removing lto-llvm-af9222.o(.ARM.exidx.text.HAL_CAN_AddTxMessage), (8 bytes).
    Removing lto-llvm-af9222.o(.ARM.exidx.text.HAL_CAN_GetRxMessage), (8 bytes).
    Removing lto-llvm-af9222.o(.ARM.exidx.text.HAL_CAN_ActivateNotification), (8 bytes).
    Removing lto-llvm-af9222.o(.ARM.exidx.text.HAL_CAN_IRQHandler), (8 bytes).
    Removing lto-llvm-af9222.o(.ARM.exidx.text.HAL_CAN_TxMailbox0CompleteCallback), (8 bytes).
    Removing lto-llvm-af9222.o(.ARM.exidx.text.HAL_CAN_TxMailbox0AbortCallback), (8 bytes).
    Removing lto-llvm-af9222.o(.ARM.exidx.text.HAL_CAN_TxMailbox1CompleteCallback), (8 bytes).
    Removing lto-llvm-af9222.o(.ARM.exidx.text.HAL_CAN_TxMailbox1AbortCallback), (8 bytes).
    Removing lto-llvm-af9222.o(.ARM.exidx.text.HAL_CAN_TxMailbox2CompleteCallback), (8 bytes).
    Removing lto-llvm-af9222.o(.ARM.exidx.text.HAL_CAN_TxMailbox2AbortCallback), (8 bytes).
    Removing lto-llvm-af9222.o(.ARM.exidx.text.HAL_CAN_RxFifo0FullCallback), (8 bytes).
    Removing lto-llvm-af9222.o(.ARM.exidx.text.HAL_CAN_RxFifo1FullCallback), (8 bytes).
    Removing lto-llvm-af9222.o(.ARM.exidx.text.HAL_CAN_RxFifo1MsgPendingCallback), (8 bytes).
    Removing lto-llvm-af9222.o(.ARM.exidx.text.HAL_CAN_SleepCallback), (8 bytes).
    Removing lto-llvm-af9222.o(.ARM.exidx.text.HAL_CAN_WakeUpFromRxMsgCallback), (8 bytes).
    Removing lto-llvm-af9222.o(.ARM.exidx.text.HAL_CAN_ErrorCallback), (8 bytes).
    Removing lto-llvm-af9222.o(.ARM.exidx.text.HAL_I2C_Init), (8 bytes).
    Removing lto-llvm-af9222.o(.ARM.exidx.text.HAL_SPI_Init), (8 bytes).
    Removing lto-llvm-af9222.o(.ARM.exidx.text.HAL_IWDG_Init), (8 bytes).
    Removing lto-llvm-af9222.o(.ARM.exidx.text.HAL_IWDG_Refresh), (8 bytes).
    Removing lto-llvm-af9222.o(.ARM.exidx.text.HAL_PCD_Init), (8 bytes).
    Removing lto-llvm-af9222.o(.ARM.exidx.text.HAL_PCD_Start), (8 bytes).
    Removing lto-llvm-af9222.o(.ARM.exidx.text.HAL_PCD_IRQHandler), (8 bytes).
    Removing lto-llvm-af9222.o(.ARM.exidx.text.PCD_EP_OutXfrComplete_int), (8 bytes).
    Removing lto-llvm-af9222.o(.ARM.exidx.text.PCD_EP_OutSetupPacket_int), (8 bytes).
    Removing lto-llvm-af9222.o(.ARM.exidx.text.PCD_WriteEmptyTxFifo), (8 bytes).
    Removing lto-llvm-af9222.o(.ARM.exidx.text.HAL_PCD_SetAddress), (8 bytes).
    Removing lto-llvm-af9222.o(.ARM.exidx.text.HAL_PCD_EP_Open), (8 bytes).
    Removing lto-llvm-af9222.o(.ARM.exidx.text.HAL_PCD_EP_Close), (8 bytes).
    Removing lto-llvm-af9222.o(.ARM.exidx.text.HAL_PCD_EP_Receive), (8 bytes).
    Removing lto-llvm-af9222.o(.ARM.exidx.text.HAL_PCD_EP_GetRxCount), (8 bytes).
    Removing lto-llvm-af9222.o(.ARM.exidx.text.HAL_PCD_EP_Transmit), (8 bytes).
    Removing lto-llvm-af9222.o(.ARM.exidx.text.HAL_PCD_EP_SetStall), (8 bytes).
    Removing lto-llvm-af9222.o(.ARM.exidx.text.HAL_PCD_EP_ClrStall), (8 bytes).
    Removing lto-llvm-af9222.o(.ARM.exidx.text.HAL_PCDEx_SetTxFiFo), (8 bytes).
    Removing lto-llvm-af9222.o(.ARM.exidx.text.HAL_PCDEx_SetRxFiFo), (8 bytes).
    Removing lto-llvm-af9222.o(.ARM.exidx.text.HAL_PCDEx_LPM_Callback), (8 bytes).
    Removing lto-llvm-af9222.o(.ARM.exidx.text.USB_CoreInit), (8 bytes).
    Removing lto-llvm-af9222.o(.ARM.exidx.text.USB_CoreReset), (8 bytes).
    Removing lto-llvm-af9222.o(.ARM.exidx.text.USB_SetTurnaroundTime), (8 bytes).
    Removing lto-llvm-af9222.o(.ARM.exidx.text.USB_EnableGlobalInt), (8 bytes).
    Removing lto-llvm-af9222.o(.ARM.exidx.text.USB_DisableGlobalInt), (8 bytes).
    Removing lto-llvm-af9222.o(.ARM.exidx.text.USB_SetCurrentMode), (8 bytes).
    Removing lto-llvm-af9222.o(.ARM.exidx.text.USB_DevInit), (8 bytes).
    Removing lto-llvm-af9222.o(.ARM.exidx.text.USB_SetDevSpeed), (8 bytes).
    Removing lto-llvm-af9222.o(.ARM.exidx.text.USB_FlushTxFifo), (8 bytes).
    Removing lto-llvm-af9222.o(.ARM.exidx.text.USB_FlushRxFifo), (8 bytes).
    Removing lto-llvm-af9222.o(.ARM.exidx.text.USB_GetDevSpeed), (8 bytes).
    Removing lto-llvm-af9222.o(.ARM.exidx.text.USB_ActivateEndpoint), (8 bytes).
    Removing lto-llvm-af9222.o(.ARM.exidx.text.USB_DeactivateEndpoint), (8 bytes).
    Removing lto-llvm-af9222.o(.ARM.exidx.text.USB_EPStartXfer), (8 bytes).
    Removing lto-llvm-af9222.o(.ARM.exidx.text.USB_WritePacket), (8 bytes).
    Removing lto-llvm-af9222.o(.ARM.exidx.text.USB_EP0StartXfer), (8 bytes).
    Removing lto-llvm-af9222.o(.ARM.exidx.text.USB_ReadPacket), (8 bytes).
    Removing lto-llvm-af9222.o(.ARM.exidx.text.USB_EPSetStall), (8 bytes).
    Removing lto-llvm-af9222.o(.ARM.exidx.text.USB_EPClearStall), (8 bytes).
    Removing lto-llvm-af9222.o(.ARM.exidx.text.USB_SetDevAddress), (8 bytes).
    Removing lto-llvm-af9222.o(.ARM.exidx.text.USB_DevConnect), (8 bytes).
    Removing lto-llvm-af9222.o(.ARM.exidx.text.USB_DevDisconnect), (8 bytes).
    Removing lto-llvm-af9222.o(.ARM.exidx.text.USB_ReadInterrupts), (8 bytes).
    Removing lto-llvm-af9222.o(.ARM.exidx.text.USB_ReadDevAllOutEpInterrupt), (8 bytes).
    Removing lto-llvm-af9222.o(.ARM.exidx.text.USB_ReadDevAllInEpInterrupt), (8 bytes).
    Removing lto-llvm-af9222.o(.ARM.exidx.text.USB_ReadDevOutEPInterrupt), (8 bytes).
    Removing lto-llvm-af9222.o(.ARM.exidx.text.USB_ReadDevInEPInterrupt), (8 bytes).
    Removing lto-llvm-af9222.o(.ARM.exidx.text.USB_GetMode), (8 bytes).
    Removing lto-llvm-af9222.o(.ARM.exidx.text.USB_ActivateSetup), (8 bytes).
    Removing lto-llvm-af9222.o(.ARM.exidx.text.USB_EP0_OutStart), (8 bytes).
    Removing lto-llvm-af9222.o(.ARM.exidx.text.SystemInit), (8 bytes).
    Removing lto-llvm-af9222.o(.ARM.exidx.text.USBD_Init), (8 bytes).
    Removing lto-llvm-af9222.o(.ARM.exidx.text.USBD_RegisterClass), (8 bytes).
    Removing lto-llvm-af9222.o(.ARM.exidx.text.USBD_Start), (8 bytes).
    Removing lto-llvm-af9222.o(.ARM.exidx.text.USBD_RunTestMode), (8 bytes).
    Removing lto-llvm-af9222.o(.ARM.exidx.text.USBD_SetClassConfig), (8 bytes).
    Removing lto-llvm-af9222.o(.ARM.exidx.text.USBD_ClrClassConfig), (8 bytes).
    Removing lto-llvm-af9222.o(.ARM.exidx.text.USBD_LL_SetupStage), (8 bytes).
    Removing lto-llvm-af9222.o(.ARM.exidx.text.USBD_LL_DataOutStage), (8 bytes).
    Removing lto-llvm-af9222.o(.ARM.exidx.text.USBD_LL_DataInStage), (8 bytes).
    Removing lto-llvm-af9222.o(.ARM.exidx.text.USBD_LL_Reset), (8 bytes).
    Removing lto-llvm-af9222.o(.ARM.exidx.text.USBD_LL_SetSpeed), (8 bytes).
    Removing lto-llvm-af9222.o(.ARM.exidx.text.USBD_LL_Suspend), (8 bytes).
    Removing lto-llvm-af9222.o(.ARM.exidx.text.USBD_LL_Resume), (8 bytes).
    Removing lto-llvm-af9222.o(.ARM.exidx.text.USBD_LL_SOF), (8 bytes).
    Removing lto-llvm-af9222.o(.ARM.exidx.text.USBD_LL_IsoINIncomplete), (8 bytes).
    Removing lto-llvm-af9222.o(.ARM.exidx.text.USBD_LL_IsoOUTIncomplete), (8 bytes).
    Removing lto-llvm-af9222.o(.ARM.exidx.text.USBD_LL_DevConnected), (8 bytes).
    Removing lto-llvm-af9222.o(.ARM.exidx.text.USBD_LL_DevDisconnected), (8 bytes).
    Removing lto-llvm-af9222.o(.ARM.exidx.text.USBD_StdDevReq), (8 bytes).
    Removing lto-llvm-af9222.o(.ARM.exidx.text.USBD_GetDescriptor), (8 bytes).
    Removing lto-llvm-af9222.o(.ARM.exidx.text.USBD_SetAddress), (8 bytes).
    Removing lto-llvm-af9222.o(.ARM.exidx.text.USBD_SetConfig), (8 bytes).
    Removing lto-llvm-af9222.o(.ARM.exidx.text.USBD_GetConfig), (8 bytes).
    Removing lto-llvm-af9222.o(.ARM.exidx.text.USBD_GetStatus), (8 bytes).
    Removing lto-llvm-af9222.o(.ARM.exidx.text.USBD_SetFeature), (8 bytes).
    Removing lto-llvm-af9222.o(.ARM.exidx.text.USBD_ClrFeature), (8 bytes).
    Removing lto-llvm-af9222.o(.ARM.exidx.text.USBD_CtlError), (8 bytes).
    Removing lto-llvm-af9222.o(.ARM.exidx.text.USBD_StdItfReq), (8 bytes).
    Removing lto-llvm-af9222.o(.ARM.exidx.text.USBD_StdEPReq), (8 bytes).
    Removing lto-llvm-af9222.o(.ARM.exidx.text.USBD_ParseSetupRequest), (8 bytes).
    Removing lto-llvm-af9222.o(.ARM.exidx.text.USBD_GetString), (8 bytes).
    Removing lto-llvm-af9222.o(.ARM.exidx.text.USBD_GetLen), (8 bytes).
    Removing lto-llvm-af9222.o(.ARM.exidx.text.USBD_CtlSendData), (8 bytes).
    Removing lto-llvm-af9222.o(.ARM.exidx.text.USBD_CtlContinueSendData), (8 bytes).
    Removing lto-llvm-af9222.o(.ARM.exidx.text.USBD_CtlPrepareRx), (8 bytes).
    Removing lto-llvm-af9222.o(.ARM.exidx.text.USBD_CtlContinueRx), (8 bytes).
    Removing lto-llvm-af9222.o(.ARM.exidx.text.USBD_CtlSendStatus), (8 bytes).
    Removing lto-llvm-af9222.o(.ARM.exidx.text.USBD_CtlReceiveStatus), (8 bytes).
    Removing lto-llvm-af9222.o(.ARM.exidx.text.USBD_CDC_Init), (8 bytes).
    Removing lto-llvm-af9222.o(.ARM.exidx.text.USBD_CDC_DeInit), (8 bytes).
    Removing lto-llvm-af9222.o(.ARM.exidx.text.USBD_CDC_Setup), (8 bytes).
    Removing lto-llvm-af9222.o(.ARM.exidx.text.USBD_CDC_EP0_RxReady), (8 bytes).
    Removing lto-llvm-af9222.o(.ARM.exidx.text.USBD_CDC_DataIn), (8 bytes).
    Removing lto-llvm-af9222.o(.ARM.exidx.text.USBD_CDC_DataOut), (8 bytes).
    Removing lto-llvm-af9222.o(.ARM.exidx.text.USBD_CDC_GetHSCfgDesc), (8 bytes).
    Removing lto-llvm-af9222.o(.ARM.exidx.text.USBD_CDC_GetFSCfgDesc), (8 bytes).
    Removing lto-llvm-af9222.o(.ARM.exidx.text.USBD_CDC_GetOtherSpeedCfgDesc), (8 bytes).
    Removing lto-llvm-af9222.o(.ARM.exidx.text.USBD_CDC_GetDeviceQualifierDescriptor), (8 bytes).
    Removing lto-llvm-af9222.o(.ARM.exidx.text.USBD_CDC_RegisterInterface), (8 bytes).
    Removing lto-llvm-af9222.o(.ARM.exidx.text.USBD_CDC_SetTxBuffer), (8 bytes).
    Removing lto-llvm-af9222.o(.ARM.exidx.text.USBD_CDC_SetRxBuffer), (8 bytes).
    Removing lto-llvm-af9222.o(.ARM.exidx.text.USBD_CDC_ReceivePacket), (8 bytes).
    Removing lto-llvm-af9222.o(.ARM.exidx.text._GLOBAL__sub_I_ChassisTask.cpp), (8 bytes).
    Removing lto-llvm-af9222.o(.ARM.exidx.text.__cxx_global_var_init), (8 bytes).
    Removing lto-llvm-af9222.o(.ARM.exidx.text.__cxx_global_var_init.1), (8 bytes).
    Removing lto-llvm-af9222.o(.ARM.exidx.text.__cxx_global_var_init.2), (8 bytes).
    Removing lto-llvm-af9222.o(.ARM.exidx.text.__cxx_global_var_init.3), (8 bytes).
    Removing lto-llvm-af9222.o(.text._Z12ChassisStartv), (2 bytes).
    Removing lto-llvm-af9222.o(.ARM.exidx.text._Z12ChassisStartv), (8 bytes).
    Removing lto-llvm-af9222.o(.ARM.exidx.text._Z13ChassisHandlev), (8 bytes).
    Removing lto-llvm-af9222.o(.ARM.exidx.text._Z11ChassisStopv), (8 bytes).
    Removing lto-llvm-af9222.o(.ARM.exidx.text._Z10CtrlHandlev), (8 bytes).
    Removing lto-llvm-af9222.o(.ARM.exidx.text._GLOBAL__sub_I_UserTask.cpp), (8 bytes).
    Removing lto-llvm-af9222.o(.ARM.exidx.text.__cxx_global_var_init.274), (8 bytes).
    Removing lto-llvm-af9222.o(.ARM.exidx.text.__cxx_global_var_init.1.275), (8 bytes).
    Removing lto-llvm-af9222.o(.ARM.exidx.text._Z8UserStopv), (8 bytes).
    Removing lto-llvm-af9222.o(.text._Z8UserInitv), (2 bytes).
    Removing lto-llvm-af9222.o(.ARM.exidx.text._Z8UserInitv), (8 bytes).
    Removing lto-llvm-af9222.o(.ARM.exidx.text._Z10UserHandlev), (8 bytes).
    Removing lto-llvm-af9222.o(.ARM.exidx.text._Z13aRGB_led_showj), (8 bytes).
    Removing lto-llvm-af9222.o(.ARM.exidx.text._Z15aRGB_led_changej), (8 bytes).
    Removing lto-llvm-af9222.o(.ARM.exidx.text._Z15bsp_ADC_vccMoniv), (8 bytes).
    Removing lto-llvm-af9222.o(.ARM.exidx.text._Z14bsp_flash_readP12flash_data_t), (8 bytes).
    Removing lto-llvm-af9222.o(.ARM.exidx.text.HAL_TIM_PeriodElapsedCallback), (8 bytes).
    Removing lto-llvm-af9222.o(.ARM.exidx.text.HAL_GPIO_EXTI_Callback), (8 bytes).
    Removing lto-llvm-af9222.o(.ARM.exidx.text.main), (8 bytes).
    Removing lto-llvm-af9222.o(.ARM.exidx.text._ZN5Motor6HandleEv), (8 bytes).
    Removing lto-llvm-af9222.o(.ARM.exidx.text._ZN5Motor11ErrorHandleEv), (8 bytes).
    Removing lto-llvm-af9222.o(.ARM.exidx.text._ZN5Motor16MotorStateUpdateEv), (8 bytes).
    Removing lto-llvm-af9222.o(.ARM.exidx.text._ZN5Motor13IntensityCalcEv), (8 bytes).
    Removing lto-llvm-af9222.o(.ARM.exidx.text._Z4log2B6v16000IjENSt3__29enable_ifIXsr3std11is_integralIT_EE5valueEdE4typeES2_), (8 bytes).
    Removing lto-llvm-af9222.o(.ARM.exidx.text._ZN3PID7PIDCalcEff), (8 bytes).
    Removing lto-llvm-af9222.o(.ARM.exidx.text._ZN5Motor4InitEv), (8 bytes).
    Removing lto-llvm-af9222.o(.ARM.exidx.text._ZN5Motor14CANPackageSendEv), (8 bytes).
    Removing lto-llvm-af9222.o(.ARM.exidx.text._ZN6DeviceC2Ev), (8 bytes).
    Removing lto-llvm-af9222.o(.ARM.exidx.text._ZN5MotorC2EjP12MOTOR_INIT_t), (8 bytes).
    Removing lto-llvm-af9222.o(.ARM.exidx.text._ZN5MotorD2Ev), (8 bytes).
    Removing lto-llvm-af9222.o(.ARM.exidx.text._ZN5Motor9IT_HandleEP19__CAN_HandleTypeDef), (8 bytes).
    Removing lto-llvm-af9222.o(.ARM.exidx.text._ZN5Motor4StopEv), (8 bytes).
    Removing lto-llvm-af9222.o(.ARM.exidx.text.HAL_CAN_RxFifo0MsgPendingCallback), (8 bytes).
    Removing lto-llvm-af9222.o(.ARM.exidx.text._ZN5Servo6HandleEv), (8 bytes).
    Removing lto-llvm-af9222.o(.ARM.exidx.text._ZN5Servo11ErrorHandleEv), (8 bytes).
    Removing lto-llvm-af9222.o(.ARM.exidx.text._ZN5ServoC2EP12SERVO_INIT_T), (8 bytes).
    Removing lto-llvm-af9222.o(.ARM.exidx.text._ZN5Servo4stopEv), (8 bytes).
    Removing lto-llvm-af9222.o(.ARM.exidx.text._ZN5Servo14SetTargetAngleEf), (8 bytes).
    Removing lto-llvm-af9222.o(.ARM.exidx.text._ZN13RemoteControl4initEv), (8 bytes).
    Removing lto-llvm-af9222.o(.ARM.exidx.text._ZN13RemoteControl10sbus_to_rcEPVKh), (8 bytes).
    Removing lto-llvm-af9222.o(.ARM.exidx.text._ZN13RemoteControl8ITHandleEv), (8 bytes).
    Removing lto-llvm-af9222.o(.ARM.exidx.text.USART3_IRQHandler), (8 bytes).
    Removing lto-llvm-af9222.o(.ARM.use_no_argv), (4 bytes).

343 unused section(s) (total 2812 bytes) removed from the image.

==============================================================================

Image Symbol Table

    Local Symbols

    Symbol Name                              Value     Ov Type        Size  Object(Section)

    ../clib/../cmprslib/zerorunl2.c          0x00000000   Number         0  __dczerorl2.o ABSOLUTE
    ../clib/division.s                       0x00000000   Number         0  aeabi_sdiv.o ABSOLUTE
    ../clib/microlib/cpp/cpp_dtor.c          0x00000000   Number         0  cpp_dtor.o ABSOLUTE
    ../clib/microlib/cpp/cpp_final.c         0x00000000   Number         0  cpp_final.o ABSOLUTE
    ../clib/microlib/cpp/cpp_init.c          0x00000000   Number         0  cpp_init.o ABSOLUTE
    ../clib/microlib/cpp/cpp_init.c          0x00000000   Number         0  cpp_init.o ABSOLUTE
    ../clib/microlib/division.c              0x00000000   Number         0  uidiv.o ABSOLUTE
    ../clib/microlib/division.c              0x00000000   Number         0  uldiv.o ABSOLUTE
    ../clib/microlib/errno.c                 0x00000000   Number         0  errno.o ABSOLUTE
    ../clib/microlib/init/entry.s            0x00000000   Number         0  entry.o ABSOLUTE
    ../clib/microlib/init/entry.s            0x00000000   Number         0  entry2.o ABSOLUTE
    ../clib/microlib/init/entry.s            0x00000000   Number         0  entry5.o ABSOLUTE
    ../clib/microlib/init/entry.s            0x00000000   Number         0  entry7a.o ABSOLUTE
    ../clib/microlib/init/entry.s            0x00000000   Number         0  entry7b.o ABSOLUTE
    ../clib/microlib/init/entry.s            0x00000000   Number         0  entry8a.o ABSOLUTE
    ../clib/microlib/init/entry.s            0x00000000   Number         0  entry8b.o ABSOLUTE
    ../clib/microlib/init/entry.s            0x00000000   Number         0  entry9a.o ABSOLUTE
    ../clib/microlib/init/entry.s            0x00000000   Number         0  entry9b.o ABSOLUTE
    ../clib/microlib/init/entry.s            0x00000000   Number         0  entry10a.o ABSOLUTE
    ../clib/microlib/init/entry.s            0x00000000   Number         0  entry10b.o ABSOLUTE
    ../clib/microlib/init/entry.s            0x00000000   Number         0  entry11a.o ABSOLUTE
    ../clib/microlib/init/entry.s            0x00000000   Number         0  entry11b.o ABSOLUTE
    ../clib/microlib/longlong.c              0x00000000   Number         0  llshl.o ABSOLUTE
    ../clib/microlib/longlong.c              0x00000000   Number         0  llushr.o ABSOLUTE
    ../clib/microlib/longlong.c              0x00000000   Number         0  llsshr.o ABSOLUTE
    ../clib/microlib/malloc/malloc.c         0x00000000   Number         0  malloc.o ABSOLUTE
    ../clib/microlib/malloc/malloc.c         0x00000000   Number         0  mallocr.o ABSOLUTE
    ../clib/microlib/malloc/malloc.c         0x00000000   Number         0  malloca.o ABSOLUTE
    ../clib/microlib/malloc/malloc.c         0x00000000   Number         0  mallocra.o ABSOLUTE
    ../clib/microlib/malloc/mvars.c          0x00000000   Number         0  mvars.o ABSOLUTE
    ../clib/microlib/printf/printf.c         0x00000000   Number         0  printfa.o ABSOLUTE
    ../clib/microlib/stdio/fputc.c           0x00000000   Number         0  fputc.o ABSOLUTE
    ../clib/microlib/stdio/fputc.c           0x00000000   Number         0  fputc_h.o ABSOLUTE
    ../clib/microlib/stdio/semi.s            0x00000000   Number         0  semi.o ABSOLUTE
    ../clib/microlib/stdio/streams.c         0x00000000   Number         0  stdout.o ABSOLUTE
    ../clib/microlib/stdlib/abort.c          0x00000000   Number         0  abort.o ABSOLUTE
    ../clib/microlib/string/memcpy.c         0x00000000   Number         0  memcpya.o ABSOLUTE
    ../clib/microlib/string/memcpy.c         0x00000000   Number         0  memcpyb.o ABSOLUTE
    ../clib/microlib/string/memset.c         0x00000000   Number         0  memseta.o ABSOLUTE
    ../clib/microlib/stubs.s                 0x00000000   Number         0  iusefp.o ABSOLUTE
    ../clib/microlib/stubs.s                 0x00000000   Number         0  iusesemip.o ABSOLUTE
    ../clib/r_arm_target.c                   0x00000000   Number         0  __ARM_resolve_target1.o ABSOLUTE
    ../clib/r_arm_target.c                   0x00000000   Number         0  __ARM_resolve_target1_abs32.o ABSOLUTE
    ../clib/stdlib.c                         0x00000000   Number         0  cxa_atexit.o ABSOLUTE
    ../clib/stdlib.c                         0x00000000   Number         0  aeabi_atexit.o ABSOLUTE
    ../clib/stdlib.c                         0x00000000   Number         0  cxa_finalize.o ABSOLUTE
    ../fplib/microlib/d2f.c                  0x00000000   Number         0  d2f.o ABSOLUTE
    ../fplib/microlib/f2d.c                  0x00000000   Number         0  f2d.o ABSOLUTE
    ../fplib/microlib/fpadd.c                0x00000000   Number         0  dadd.o ABSOLUTE
    ../fplib/microlib/fpdiv.c                0x00000000   Number         0  ddiv.o ABSOLUTE
    ../fplib/microlib/fpepilogue.c           0x00000000   Number         0  depilogue.o ABSOLUTE
    ../fplib/microlib/fpepilogue.c           0x00000000   Number         0  fepilogue.o ABSOLUTE
    ../fplib/microlib/fpfix.c                0x00000000   Number         0  dfixul.o ABSOLUTE
    ../fplib/microlib/fpfix.c                0x00000000   Number         0  dfixui.o ABSOLUTE
    ../fplib/microlib/fpflt.c                0x00000000   Number         0  dflti.o ABSOLUTE
    ../fplib/microlib/fpflt.c                0x00000000   Number         0  dfltui.o ABSOLUTE
    ../fplib/microlib/fpmul.c                0x00000000   Number         0  dmul.o ABSOLUTE
    ../fplib/microlib/fpneg.c                0x00000000   Number         0  dneg.o ABSOLUTE
    ../mathlib/dunder.c                      0x00000000   Number         0  dunder.o ABSOLUTE
    ../mathlib/frexp.c                       0x00000000   Number         0  frexp.o ABSOLUTE
    ../mathlib/log.c                         0x00000000   Number         0  log.o ABSOLUTE
    ../mathlib/log2.c                        0x00000000   Number         0  log2.o ABSOLUTE
    ../mathlib/poly.c                        0x00000000   Number         0  poly.o ABSOLUTE
    ../mathlib/qnan.c                        0x00000000   Number         0  qnan.o ABSOLUTE
    abort_message.cpp                        0x00000000   Number         0  abort_message.cpp.o ABSOLUTE
    cdcmple.s                                0x00000000   Number         0  cdcmple.o ABSOLUTE
    cdrcmple.s                               0x00000000   Number         0  cdrcmple.o ABSOLUTE
    cxa_virtual.cpp                          0x00000000   Number         0  cxa_virtual.cpp.o ABSOLUTE
    dc.s                                     0x00000000   Number         0  dc.o ABSOLUTE
    handlers.s                               0x00000000   Number         0  handlers.o ABSOLUTE
    init.s                                   0x00000000   Number         0  init.o ABSOLUTE
    ld-temp.o                                0x00000000   Number         0  lto-llvm-af9222.o ABSOLUTE
    startup_stm32f407xx.s                    0x00000000   Number         0  startup_stm32f407xx.o ABSOLUTE
    RESET                                    0x08000000   Section      392  startup_stm32f407xx.o(RESET)
    .ARM.Collect$$$$00000000                 0x08000188   Section        0  entry.o(.ARM.Collect$$$$00000000)
    .ARM.Collect$$$$00000001                 0x08000188   Section        4  entry2.o(.ARM.Collect$$$$00000001)
    .ARM.Collect$$$$00000004                 0x0800018c   Section        4  entry5.o(.ARM.Collect$$$$00000004)
    .ARM.Collect$$$$00000008                 0x08000190   Section        0  entry7b.o(.ARM.Collect$$$$00000008)
    .ARM.Collect$$$$00000009                 0x08000190   Section        4  entry8a.o(.ARM.Collect$$$$00000009)
    .ARM.Collect$$$$0000000A                 0x08000194   Section        0  entry8b.o(.ARM.Collect$$$$0000000A)
    .ARM.Collect$$$$0000000B                 0x08000194   Section        8  entry9a.o(.ARM.Collect$$$$0000000B)
    .ARM.Collect$$$$0000000D                 0x0800019c   Section        0  entry10a.o(.ARM.Collect$$$$0000000D)
    .ARM.Collect$$$$0000000E                 0x0800019c   Section        4  entry10b.o(.ARM.Collect$$$$0000000E)
    __lit__00000000                          0x080001a0   Data           4  entry2.o(.ARM.Collect$$$$00002712)
    .ARM.Collect$$$$0000000F                 0x080001a0   Section        0  entry11a.o(.ARM.Collect$$$$0000000F)
    .ARM.Collect$$$$00002712                 0x080001a0   Section        4  entry2.o(.ARM.Collect$$$$00002712)
    $v0                                      0x080001a4   Number         0  startup_stm32f407xx.o(.text)
    .text                                    0x080001a4   Section       36  startup_stm32f407xx.o(.text)
    .text                                    0x080001c8   Section        0  cxa_atexit.o(.text)
    .text                                    0x080001d2   Section        0  uldiv.o(.text)
    .text                                    0x08000234   Section        0  memcpya.o(.text)
    .text                                    0x08000258   Section        0  iusefp.o(.text)
    .text                                    0x08000258   Section        0  aeabi_atexit.o(.text)
    .text                                    0x08000286   Section        0  dadd.o(.text)
    .text                                    0x080003d4   Section        0  dmul.o(.text)
    .text                                    0x080004b8   Section        0  ddiv.o(.text)
    .text                                    0x08000596   Section        0  dflti.o(.text)
    .text                                    0x080005b8   Section       48  cdcmple.o(.text)
    .text                                    0x080005e8   Section       36  init.o(.text)
    .text                                    0x0800060c   Section        0  llshl.o(.text)
    .text                                    0x0800062a   Section        0  llushr.o(.text)
    .text                                    0x0800064a   Section        0  llsshr.o(.text)
    .text                                    0x08000670   Section        0  cpp_dtor.o(.text)
    .text                                    0x08000678   Section        0  cxa_finalize.o(.text)
    .text                                    0x080006ba   Section        0  depilogue.o(.text)
    .text                                    0x08000774   Section        0  cpp_final.o(.text)
    .text                                    0x08000776   Section        0  memseta.o(.text)
    .text                                    0x0800079c   Section        0  cpp_init.o(.text)
    .text                                    0x080007bc   Section        0  dfltui.o(.text)
    .text                                    0x080007d6   Section        0  dfixui.o(.text)
    .text                                    0x08000808   Section        0  f2d.o(.text)
    .text                                    0x0800082e   Section        0  d2f.o(.text)
    .text                                    0x08000866   Section        0  fepilogue.o(.text)
    .text                                    0x080008d4   Section        0  __dczerorl2.o(.text)
    ADC_Init                                 0x0800092d   Thumb Code   394  lto-llvm-af9222.o(.text.ADC_Init)
    [Anonymous Symbol]                       0x0800092c   Section        0  lto-llvm-af9222.o(.text.ADC_Init)
    [Anonymous Symbol]                       0x08000ab8   Section        0  lto-llvm-af9222.o(.text.BusFault_Handler)
    [Anonymous Symbol]                       0x08000abc   Section        0  lto-llvm-af9222.o(.text.CAN1_RX0_IRQHandler)
    [Anonymous Symbol]                       0x08000acc   Section        0  lto-llvm-af9222.o(.text.CAN2_RX0_IRQHandler)
    CDC_Control_FS                           0x08000add   Thumb Code    86  lto-llvm-af9222.o(.text.CDC_Control_FS)
    [Anonymous Symbol]                       0x08000adc   Section        0  lto-llvm-af9222.o(.text.CDC_Control_FS)
    CDC_DeInit_FS                            0x08000b35   Thumb Code     4  lto-llvm-af9222.o(.text.CDC_DeInit_FS)
    [Anonymous Symbol]                       0x08000b34   Section        0  lto-llvm-af9222.o(.text.CDC_DeInit_FS)
    CDC_Init_FS                              0x08000b39   Thumb Code    22  lto-llvm-af9222.o(.text.CDC_Init_FS)
    [Anonymous Symbol]                       0x08000b38   Section        0  lto-llvm-af9222.o(.text.CDC_Init_FS)
    CDC_Receive_FS                           0x08000b51   Thumb Code    24  lto-llvm-af9222.o(.text.CDC_Receive_FS)
    [Anonymous Symbol]                       0x08000b50   Section        0  lto-llvm-af9222.o(.text.CDC_Receive_FS)
    [Anonymous Symbol]                       0x08000b68   Section        0  lto-llvm-af9222.o(.text.DMA1_Stream1_IRQHandler)
    [Anonymous Symbol]                       0x08000b78   Section        0  lto-llvm-af9222.o(.text.DMA2_Stream2_IRQHandler)
    [Anonymous Symbol]                       0x08000b88   Section        0  lto-llvm-af9222.o(.text.DMA2_Stream7_IRQHandler)
    DMA_CalcBaseAndBitshift                  0x08000b99   Thumb Code    86  lto-llvm-af9222.o(.text.DMA_CalcBaseAndBitshift)
    [Anonymous Symbol]                       0x08000b98   Section        0  lto-llvm-af9222.o(.text.DMA_CalcBaseAndBitshift)
    DMA_CheckFifoParam                       0x08000bf1   Thumb Code   228  lto-llvm-af9222.o(.text.DMA_CheckFifoParam)
    [Anonymous Symbol]                       0x08000bf0   Section        0  lto-llvm-af9222.o(.text.DMA_CheckFifoParam)
    [Anonymous Symbol]                       0x08000cd4   Section        0  lto-llvm-af9222.o(.text.DebugMon_Handler)
    [Anonymous Symbol]                       0x08000cd8   Section        0  lto-llvm-af9222.o(.text.EXTI0_IRQHandler)
    [Anonymous Symbol]                       0x08000ce4   Section        0  lto-llvm-af9222.o(.text.EXTI3_IRQHandler)
    Get_SerialNum                            0x08000cf1   Thumb Code    90  lto-llvm-af9222.o(.text.Get_SerialNum)
    [Anonymous Symbol]                       0x08000cf0   Section        0  lto-llvm-af9222.o(.text.Get_SerialNum)
    HAL_ADC_ConfigChannel                    0x08000d4d   Thumb Code   540  lto-llvm-af9222.o(.text.HAL_ADC_ConfigChannel)
    [Anonymous Symbol]                       0x08000d4c   Section        0  lto-llvm-af9222.o(.text.HAL_ADC_ConfigChannel)
    HAL_ADC_GetValue                         0x08000f69   Thumb Code    14  lto-llvm-af9222.o(.text.HAL_ADC_GetValue)
    [Anonymous Symbol]                       0x08000f68   Section        0  lto-llvm-af9222.o(.text.HAL_ADC_GetValue)
    HAL_ADC_Init                             0x08000f79   Thumb Code   168  lto-llvm-af9222.o(.text.HAL_ADC_Init)
    [Anonymous Symbol]                       0x08000f78   Section        0  lto-llvm-af9222.o(.text.HAL_ADC_Init)
    HAL_ADC_MspInit                          0x08001021   Thumb Code   194  lto-llvm-af9222.o(.text.HAL_ADC_MspInit)
    [Anonymous Symbol]                       0x08001020   Section        0  lto-llvm-af9222.o(.text.HAL_ADC_MspInit)
    HAL_ADC_PollForConversion                0x080010e5   Thumb Code   278  lto-llvm-af9222.o(.text.HAL_ADC_PollForConversion)
    [Anonymous Symbol]                       0x080010e4   Section        0  lto-llvm-af9222.o(.text.HAL_ADC_PollForConversion)
    HAL_ADC_Start                            0x080011fd   Thumb Code   438  lto-llvm-af9222.o(.text.HAL_ADC_Start)
    [Anonymous Symbol]                       0x080011fc   Section        0  lto-llvm-af9222.o(.text.HAL_ADC_Start)
    HAL_ADC_Stop                             0x080013b5   Thumb Code   112  lto-llvm-af9222.o(.text.HAL_ADC_Stop)
    [Anonymous Symbol]                       0x080013b4   Section        0  lto-llvm-af9222.o(.text.HAL_ADC_Stop)
    HAL_CAN_ActivateNotification             0x08001425   Thumb Code    80  lto-llvm-af9222.o(.text.HAL_CAN_ActivateNotification)
    [Anonymous Symbol]                       0x08001424   Section        0  lto-llvm-af9222.o(.text.HAL_CAN_ActivateNotification)
    HAL_CAN_AddTxMessage                     0x08001475   Thumb Code   368  lto-llvm-af9222.o(.text.HAL_CAN_AddTxMessage)
    [Anonymous Symbol]                       0x08001474   Section        0  lto-llvm-af9222.o(.text.HAL_CAN_AddTxMessage)
    HAL_CAN_ConfigFilter                     0x080015e5   Thumb Code   426  lto-llvm-af9222.o(.text.HAL_CAN_ConfigFilter)
    [Anonymous Symbol]                       0x080015e4   Section        0  lto-llvm-af9222.o(.text.HAL_CAN_ConfigFilter)
    HAL_CAN_ErrorCallback                    0x08001791   Thumb Code     8  lto-llvm-af9222.o(.text.HAL_CAN_ErrorCallback)
    [Anonymous Symbol]                       0x08001790   Section        0  lto-llvm-af9222.o(.text.HAL_CAN_ErrorCallback)
    HAL_CAN_GetRxMessage                     0x08001799   Thumb Code   494  lto-llvm-af9222.o(.text.HAL_CAN_GetRxMessage)
    [Anonymous Symbol]                       0x08001798   Section        0  lto-llvm-af9222.o(.text.HAL_CAN_GetRxMessage)
    HAL_CAN_IRQHandler                       0x08001989   Thumb Code   994  lto-llvm-af9222.o(.text.HAL_CAN_IRQHandler)
    [Anonymous Symbol]                       0x08001988   Section        0  lto-llvm-af9222.o(.text.HAL_CAN_IRQHandler)
    HAL_CAN_Init                             0x08001d6d   Thumb Code   474  lto-llvm-af9222.o(.text.HAL_CAN_Init)
    [Anonymous Symbol]                       0x08001d6c   Section        0  lto-llvm-af9222.o(.text.HAL_CAN_Init)
    HAL_CAN_MspInit                          0x08001f49   Thumb Code   376  lto-llvm-af9222.o(.text.HAL_CAN_MspInit)
    [Anonymous Symbol]                       0x08001f48   Section        0  lto-llvm-af9222.o(.text.HAL_CAN_MspInit)
    HAL_CAN_RxFifo0FullCallback              0x080020c1   Thumb Code     8  lto-llvm-af9222.o(.text.HAL_CAN_RxFifo0FullCallback)
    [Anonymous Symbol]                       0x080020c0   Section        0  lto-llvm-af9222.o(.text.HAL_CAN_RxFifo0FullCallback)
    HAL_CAN_RxFifo0MsgPendingCallback        0x080020c9   Thumb Code    16  lto-llvm-af9222.o(.text.HAL_CAN_RxFifo0MsgPendingCallback)
    [Anonymous Symbol]                       0x080020c8   Section        0  lto-llvm-af9222.o(.text.HAL_CAN_RxFifo0MsgPendingCallback)
    HAL_CAN_RxFifo1FullCallback              0x080020d9   Thumb Code     8  lto-llvm-af9222.o(.text.HAL_CAN_RxFifo1FullCallback)
    [Anonymous Symbol]                       0x080020d8   Section        0  lto-llvm-af9222.o(.text.HAL_CAN_RxFifo1FullCallback)
    HAL_CAN_RxFifo1MsgPendingCallback        0x080020e1   Thumb Code     8  lto-llvm-af9222.o(.text.HAL_CAN_RxFifo1MsgPendingCallback)
    [Anonymous Symbol]                       0x080020e0   Section        0  lto-llvm-af9222.o(.text.HAL_CAN_RxFifo1MsgPendingCallback)
    HAL_CAN_SleepCallback                    0x080020e9   Thumb Code     8  lto-llvm-af9222.o(.text.HAL_CAN_SleepCallback)
    [Anonymous Symbol]                       0x080020e8   Section        0  lto-llvm-af9222.o(.text.HAL_CAN_SleepCallback)
    HAL_CAN_Start                            0x080020f1   Thumb Code   134  lto-llvm-af9222.o(.text.HAL_CAN_Start)
    [Anonymous Symbol]                       0x080020f0   Section        0  lto-llvm-af9222.o(.text.HAL_CAN_Start)
    HAL_CAN_TxMailbox0AbortCallback          0x08002179   Thumb Code     8  lto-llvm-af9222.o(.text.HAL_CAN_TxMailbox0AbortCallback)
    [Anonymous Symbol]                       0x08002178   Section        0  lto-llvm-af9222.o(.text.HAL_CAN_TxMailbox0AbortCallback)
    HAL_CAN_TxMailbox0CompleteCallback       0x08002181   Thumb Code     8  lto-llvm-af9222.o(.text.HAL_CAN_TxMailbox0CompleteCallback)
    [Anonymous Symbol]                       0x08002180   Section        0  lto-llvm-af9222.o(.text.HAL_CAN_TxMailbox0CompleteCallback)
    HAL_CAN_TxMailbox1AbortCallback          0x08002189   Thumb Code     8  lto-llvm-af9222.o(.text.HAL_CAN_TxMailbox1AbortCallback)
    [Anonymous Symbol]                       0x08002188   Section        0  lto-llvm-af9222.o(.text.HAL_CAN_TxMailbox1AbortCallback)
    HAL_CAN_TxMailbox1CompleteCallback       0x08002191   Thumb Code     8  lto-llvm-af9222.o(.text.HAL_CAN_TxMailbox1CompleteCallback)
    [Anonymous Symbol]                       0x08002190   Section        0  lto-llvm-af9222.o(.text.HAL_CAN_TxMailbox1CompleteCallback)
    HAL_CAN_TxMailbox2AbortCallback          0x08002199   Thumb Code     8  lto-llvm-af9222.o(.text.HAL_CAN_TxMailbox2AbortCallback)
    [Anonymous Symbol]                       0x08002198   Section        0  lto-llvm-af9222.o(.text.HAL_CAN_TxMailbox2AbortCallback)
    HAL_CAN_TxMailbox2CompleteCallback       0x080021a1   Thumb Code     8  lto-llvm-af9222.o(.text.HAL_CAN_TxMailbox2CompleteCallback)
    [Anonymous Symbol]                       0x080021a0   Section        0  lto-llvm-af9222.o(.text.HAL_CAN_TxMailbox2CompleteCallback)
    HAL_CAN_WakeUpFromRxMsgCallback          0x080021a9   Thumb Code     8  lto-llvm-af9222.o(.text.HAL_CAN_WakeUpFromRxMsgCallback)
    [Anonymous Symbol]                       0x080021a8   Section        0  lto-llvm-af9222.o(.text.HAL_CAN_WakeUpFromRxMsgCallback)
    HAL_DMA_Abort_IT                         0x080021b1   Thumb Code    68  lto-llvm-af9222.o(.text.HAL_DMA_Abort_IT)
    [Anonymous Symbol]                       0x080021b0   Section        0  lto-llvm-af9222.o(.text.HAL_DMA_Abort_IT)
    HAL_DMA_IRQHandler                       0x080021f5   Thumb Code   812  lto-llvm-af9222.o(.text.HAL_DMA_IRQHandler)
    [Anonymous Symbol]                       0x080021f4   Section        0  lto-llvm-af9222.o(.text.HAL_DMA_IRQHandler)
    HAL_DMA_Init                             0x08002521   Thumb Code   366  lto-llvm-af9222.o(.text.HAL_DMA_Init)
    [Anonymous Symbol]                       0x08002520   Section        0  lto-llvm-af9222.o(.text.HAL_DMA_Init)
    HAL_Delay                                0x08002691   Thumb Code    56  lto-llvm-af9222.o(.text.HAL_Delay)
    [Anonymous Symbol]                       0x08002690   Section        0  lto-llvm-af9222.o(.text.HAL_Delay)
    HAL_GPIO_EXTI_Callback                   0x080026c9   Thumb Code   132  lto-llvm-af9222.o(.text.HAL_GPIO_EXTI_Callback)
    [Anonymous Symbol]                       0x080026c8   Section        0  lto-llvm-af9222.o(.text.HAL_GPIO_EXTI_Callback)
    HAL_GPIO_EXTI_IRQHandler                 0x0800274d   Thumb Code    56  lto-llvm-af9222.o(.text.HAL_GPIO_EXTI_IRQHandler)
    [Anonymous Symbol]                       0x0800274c   Section        0  lto-llvm-af9222.o(.text.HAL_GPIO_EXTI_IRQHandler)
    HAL_GPIO_Init                            0x08002785   Thumb Code   920  lto-llvm-af9222.o(.text.HAL_GPIO_Init)
    [Anonymous Symbol]                       0x08002784   Section        0  lto-llvm-af9222.o(.text.HAL_GPIO_Init)
    HAL_GPIO_ReadPin                         0x08002b1d   Thumb Code    54  lto-llvm-af9222.o(.text.HAL_GPIO_ReadPin)
    [Anonymous Symbol]                       0x08002b1c   Section        0  lto-llvm-af9222.o(.text.HAL_GPIO_ReadPin)
    HAL_GPIO_WritePin                        0x08002b55   Thumb Code    48  lto-llvm-af9222.o(.text.HAL_GPIO_WritePin)
    [Anonymous Symbol]                       0x08002b54   Section        0  lto-llvm-af9222.o(.text.HAL_GPIO_WritePin)
    HAL_GetTick                              0x08002b85   Thumb Code    12  lto-llvm-af9222.o(.text.HAL_GetTick)
    [Anonymous Symbol]                       0x08002b84   Section        0  lto-llvm-af9222.o(.text.HAL_GetTick)
    HAL_I2C_Init                             0x08002b91   Thumb Code   634  lto-llvm-af9222.o(.text.HAL_I2C_Init)
    [Anonymous Symbol]                       0x08002b90   Section        0  lto-llvm-af9222.o(.text.HAL_I2C_Init)
    HAL_I2C_MspInit                          0x08002e0d   Thumb Code   218  lto-llvm-af9222.o(.text.HAL_I2C_MspInit)
    [Anonymous Symbol]                       0x08002e0c   Section        0  lto-llvm-af9222.o(.text.HAL_I2C_MspInit)
    HAL_IWDG_Init                            0x08002ee9   Thumb Code   132  lto-llvm-af9222.o(.text.HAL_IWDG_Init)
    [Anonymous Symbol]                       0x08002ee8   Section        0  lto-llvm-af9222.o(.text.HAL_IWDG_Init)
    HAL_IWDG_Refresh                         0x08002f6d   Thumb Code    26  lto-llvm-af9222.o(.text.HAL_IWDG_Refresh)
    [Anonymous Symbol]                       0x08002f6c   Section        0  lto-llvm-af9222.o(.text.HAL_IWDG_Refresh)
    HAL_IncTick                              0x08002f89   Thumb Code    16  lto-llvm-af9222.o(.text.HAL_IncTick)
    [Anonymous Symbol]                       0x08002f88   Section        0  lto-llvm-af9222.o(.text.HAL_IncTick)
    HAL_Init                                 0x08002f99   Thumb Code    50  lto-llvm-af9222.o(.text.HAL_Init)
    [Anonymous Symbol]                       0x08002f98   Section        0  lto-llvm-af9222.o(.text.HAL_Init)
    HAL_InitTick                             0x08002fcd   Thumb Code    98  lto-llvm-af9222.o(.text.HAL_InitTick)
    [Anonymous Symbol]                       0x08002fcc   Section        0  lto-llvm-af9222.o(.text.HAL_InitTick)
    HAL_MspInit                              0x08003031   Thumb Code    74  lto-llvm-af9222.o(.text.HAL_MspInit)
    [Anonymous Symbol]                       0x08003030   Section        0  lto-llvm-af9222.o(.text.HAL_MspInit)
    HAL_NVIC_EnableIRQ                       0x0800307d   Thumb Code    20  lto-llvm-af9222.o(.text.HAL_NVIC_EnableIRQ)
    [Anonymous Symbol]                       0x0800307c   Section        0  lto-llvm-af9222.o(.text.HAL_NVIC_EnableIRQ)
    HAL_NVIC_SetPriority                     0x08003091   Thumb Code    48  lto-llvm-af9222.o(.text.HAL_NVIC_SetPriority)
    [Anonymous Symbol]                       0x08003090   Section        0  lto-llvm-af9222.o(.text.HAL_NVIC_SetPriority)
    HAL_NVIC_SetPriorityGrouping             0x080030c1   Thumb Code    18  lto-llvm-af9222.o(.text.HAL_NVIC_SetPriorityGrouping)
    [Anonymous Symbol]                       0x080030c0   Section        0  lto-llvm-af9222.o(.text.HAL_NVIC_SetPriorityGrouping)
    HAL_PCDEx_LPM_Callback                   0x080030d5   Thumb Code    14  lto-llvm-af9222.o(.text.HAL_PCDEx_LPM_Callback)
    [Anonymous Symbol]                       0x080030d4   Section        0  lto-llvm-af9222.o(.text.HAL_PCDEx_LPM_Callback)
    HAL_PCDEx_SetRxFiFo                      0x080030e5   Thumb Code    32  lto-llvm-af9222.o(.text.HAL_PCDEx_SetRxFiFo)
    [Anonymous Symbol]                       0x080030e4   Section        0  lto-llvm-af9222.o(.text.HAL_PCDEx_SetRxFiFo)
    HAL_PCDEx_SetTxFiFo                      0x08003105   Thumb Code   162  lto-llvm-af9222.o(.text.HAL_PCDEx_SetTxFiFo)
    [Anonymous Symbol]                       0x08003104   Section        0  lto-llvm-af9222.o(.text.HAL_PCDEx_SetTxFiFo)
    HAL_PCD_ConnectCallback                  0x080031a9   Thumb Code    20  lto-llvm-af9222.o(.text.HAL_PCD_ConnectCallback)
    [Anonymous Symbol]                       0x080031a8   Section        0  lto-llvm-af9222.o(.text.HAL_PCD_ConnectCallback)
    HAL_PCD_DataInStageCallback              0x080031bd   Thumb Code    38  lto-llvm-af9222.o(.text.HAL_PCD_DataInStageCallback)
    [Anonymous Symbol]                       0x080031bc   Section        0  lto-llvm-af9222.o(.text.HAL_PCD_DataInStageCallback)
    HAL_PCD_DataOutStageCallback             0x080031e5   Thumb Code    40  lto-llvm-af9222.o(.text.HAL_PCD_DataOutStageCallback)
    [Anonymous Symbol]                       0x080031e4   Section        0  lto-llvm-af9222.o(.text.HAL_PCD_DataOutStageCallback)
    HAL_PCD_DisconnectCallback               0x0800320d   Thumb Code    20  lto-llvm-af9222.o(.text.HAL_PCD_DisconnectCallback)
    [Anonymous Symbol]                       0x0800320c   Section        0  lto-llvm-af9222.o(.text.HAL_PCD_DisconnectCallback)
    HAL_PCD_EP_Close                         0x08003221   Thumb Code   168  lto-llvm-af9222.o(.text.HAL_PCD_EP_Close)
    [Anonymous Symbol]                       0x08003220   Section        0  lto-llvm-af9222.o(.text.HAL_PCD_EP_Close)
    HAL_PCD_EP_ClrStall                      0x080032c9   Thumb Code   200  lto-llvm-af9222.o(.text.HAL_PCD_EP_ClrStall)
    [Anonymous Symbol]                       0x080032c8   Section        0  lto-llvm-af9222.o(.text.HAL_PCD_EP_ClrStall)
    HAL_PCD_EP_GetRxCount                    0x08003391   Thumb Code    34  lto-llvm-af9222.o(.text.HAL_PCD_EP_GetRxCount)
    [Anonymous Symbol]                       0x08003390   Section        0  lto-llvm-af9222.o(.text.HAL_PCD_EP_GetRxCount)
    HAL_PCD_EP_Open                          0x080033b5   Thumb Code   234  lto-llvm-af9222.o(.text.HAL_PCD_EP_Open)
    [Anonymous Symbol]                       0x080033b4   Section        0  lto-llvm-af9222.o(.text.HAL_PCD_EP_Open)
    HAL_PCD_EP_Receive                       0x080034a1   Thumb Code   132  lto-llvm-af9222.o(.text.HAL_PCD_EP_Receive)
    [Anonymous Symbol]                       0x080034a0   Section        0  lto-llvm-af9222.o(.text.HAL_PCD_EP_Receive)
    HAL_PCD_EP_SetStall                      0x08003525   Thumb Code   222  lto-llvm-af9222.o(.text.HAL_PCD_EP_SetStall)
    [Anonymous Symbol]                       0x08003524   Section        0  lto-llvm-af9222.o(.text.HAL_PCD_EP_SetStall)
    HAL_PCD_EP_Transmit                      0x08003605   Thumb Code   132  lto-llvm-af9222.o(.text.HAL_PCD_EP_Transmit)
    [Anonymous Symbol]                       0x08003604   Section        0  lto-llvm-af9222.o(.text.HAL_PCD_EP_Transmit)
    HAL_PCD_IRQHandler                       0x08003689   Thumb Code  1618  lto-llvm-af9222.o(.text.HAL_PCD_IRQHandler)
    [Anonymous Symbol]                       0x08003688   Section        0  lto-llvm-af9222.o(.text.HAL_PCD_IRQHandler)
    HAL_PCD_ISOINIncompleteCallback          0x08003cdd   Thumb Code    28  lto-llvm-af9222.o(.text.HAL_PCD_ISOINIncompleteCallback)
    [Anonymous Symbol]                       0x08003cdc   Section        0  lto-llvm-af9222.o(.text.HAL_PCD_ISOINIncompleteCallback)
    HAL_PCD_ISOOUTIncompleteCallback         0x08003cf9   Thumb Code    28  lto-llvm-af9222.o(.text.HAL_PCD_ISOOUTIncompleteCallback)
    [Anonymous Symbol]                       0x08003cf8   Section        0  lto-llvm-af9222.o(.text.HAL_PCD_ISOOUTIncompleteCallback)
    HAL_PCD_Init                             0x08003d15   Thumb Code   666  lto-llvm-af9222.o(.text.HAL_PCD_Init)
    [Anonymous Symbol]                       0x08003d14   Section        0  lto-llvm-af9222.o(.text.HAL_PCD_Init)
    HAL_PCD_MspInit                          0x08003fb1   Thumb Code   172  lto-llvm-af9222.o(.text.HAL_PCD_MspInit)
    [Anonymous Symbol]                       0x08003fb0   Section        0  lto-llvm-af9222.o(.text.HAL_PCD_MspInit)
    HAL_PCD_ResetCallback                    0x0800405d   Thumb Code    82  lto-llvm-af9222.o(.text.HAL_PCD_ResetCallback)
    [Anonymous Symbol]                       0x0800405c   Section        0  lto-llvm-af9222.o(.text.HAL_PCD_ResetCallback)
    HAL_PCD_ResumeCallback                   0x080040b1   Thumb Code    20  lto-llvm-af9222.o(.text.HAL_PCD_ResumeCallback)
    [Anonymous Symbol]                       0x080040b0   Section        0  lto-llvm-af9222.o(.text.HAL_PCD_ResumeCallback)
    HAL_PCD_SOFCallback                      0x080040c5   Thumb Code    20  lto-llvm-af9222.o(.text.HAL_PCD_SOFCallback)
    [Anonymous Symbol]                       0x080040c4   Section        0  lto-llvm-af9222.o(.text.HAL_PCD_SOFCallback)
    HAL_PCD_SetAddress                       0x080040d9   Thumb Code    94  lto-llvm-af9222.o(.text.HAL_PCD_SetAddress)
    [Anonymous Symbol]                       0x080040d8   Section        0  lto-llvm-af9222.o(.text.HAL_PCD_SetAddress)
    HAL_PCD_SetupStageCallback               0x08004139   Thumb Code    24  lto-llvm-af9222.o(.text.HAL_PCD_SetupStageCallback)
    [Anonymous Symbol]                       0x08004138   Section        0  lto-llvm-af9222.o(.text.HAL_PCD_SetupStageCallback)
    HAL_PCD_Start                            0x08004151   Thumb Code   122  lto-llvm-af9222.o(.text.HAL_PCD_Start)
    [Anonymous Symbol]                       0x08004150   Section        0  lto-llvm-af9222.o(.text.HAL_PCD_Start)
    HAL_PCD_SuspendCallback                  0x080041cd   Thumb Code    62  lto-llvm-af9222.o(.text.HAL_PCD_SuspendCallback)
    [Anonymous Symbol]                       0x080041cc   Section        0  lto-llvm-af9222.o(.text.HAL_PCD_SuspendCallback)
    HAL_RCC_ClockConfig                      0x0800420d   Thumb Code   612  lto-llvm-af9222.o(.text.HAL_RCC_ClockConfig)
    [Anonymous Symbol]                       0x0800420c   Section        0  lto-llvm-af9222.o(.text.HAL_RCC_ClockConfig)
    HAL_RCC_GetHCLKFreq                      0x08004471   Thumb Code    12  lto-llvm-af9222.o(.text.HAL_RCC_GetHCLKFreq)
    [Anonymous Symbol]                       0x08004470   Section        0  lto-llvm-af9222.o(.text.HAL_RCC_GetHCLKFreq)
    HAL_RCC_GetPCLK1Freq                     0x0800447d   Thumb Code    34  lto-llvm-af9222.o(.text.HAL_RCC_GetPCLK1Freq)
    [Anonymous Symbol]                       0x0800447c   Section        0  lto-llvm-af9222.o(.text.HAL_RCC_GetPCLK1Freq)
    HAL_RCC_GetPCLK2Freq                     0x080044a1   Thumb Code    34  lto-llvm-af9222.o(.text.HAL_RCC_GetPCLK2Freq)
    [Anonymous Symbol]                       0x080044a0   Section        0  lto-llvm-af9222.o(.text.HAL_RCC_GetPCLK2Freq)
    HAL_RCC_GetSysClockFreq                  0x080044c5   Thumb Code   222  lto-llvm-af9222.o(.text.HAL_RCC_GetSysClockFreq)
    [Anonymous Symbol]                       0x080044c4   Section        0  lto-llvm-af9222.o(.text.HAL_RCC_GetSysClockFreq)
    HAL_RCC_OscConfig                        0x080045a5   Thumb Code  1700  lto-llvm-af9222.o(.text.HAL_RCC_OscConfig)
    [Anonymous Symbol]                       0x080045a4   Section        0  lto-llvm-af9222.o(.text.HAL_RCC_OscConfig)
    HAL_SPI_Init                             0x08004c49   Thumb Code   186  lto-llvm-af9222.o(.text.HAL_SPI_Init)
    [Anonymous Symbol]                       0x08004c48   Section        0  lto-llvm-af9222.o(.text.HAL_SPI_Init)
    HAL_SPI_MspInit                          0x08004d05   Thumb Code   408  lto-llvm-af9222.o(.text.HAL_SPI_MspInit)
    [Anonymous Symbol]                       0x08004d04   Section        0  lto-llvm-af9222.o(.text.HAL_SPI_MspInit)
    HAL_SYSTICK_Config                       0x08004e9d   Thumb Code    16  lto-llvm-af9222.o(.text.HAL_SYSTICK_Config)
    [Anonymous Symbol]                       0x08004e9c   Section        0  lto-llvm-af9222.o(.text.HAL_SYSTICK_Config)
    HAL_TIMEx_BreakCallback                  0x08004ead   Thumb Code     8  lto-llvm-af9222.o(.text.HAL_TIMEx_BreakCallback)
    [Anonymous Symbol]                       0x08004eac   Section        0  lto-llvm-af9222.o(.text.HAL_TIMEx_BreakCallback)
    HAL_TIMEx_CommutCallback                 0x08004eb5   Thumb Code     8  lto-llvm-af9222.o(.text.HAL_TIMEx_CommutCallback)
    [Anonymous Symbol]                       0x08004eb4   Section        0  lto-llvm-af9222.o(.text.HAL_TIMEx_CommutCallback)
    HAL_TIMEx_ConfigBreakDeadTime            0x08004ebd   Thumb Code   178  lto-llvm-af9222.o(.text.HAL_TIMEx_ConfigBreakDeadTime)
    [Anonymous Symbol]                       0x08004ebc   Section        0  lto-llvm-af9222.o(.text.HAL_TIMEx_ConfigBreakDeadTime)
    HAL_TIMEx_MasterConfigSynchronization    0x08004f71   Thumb Code   290  lto-llvm-af9222.o(.text.HAL_TIMEx_MasterConfigSynchronization)
    [Anonymous Symbol]                       0x08004f70   Section        0  lto-llvm-af9222.o(.text.HAL_TIMEx_MasterConfigSynchronization)
    HAL_TIM_Base_Init                        0x08005095   Thumb Code    88  lto-llvm-af9222.o(.text.HAL_TIM_Base_Init)
    [Anonymous Symbol]                       0x08005094   Section        0  lto-llvm-af9222.o(.text.HAL_TIM_Base_Init)
    HAL_TIM_Base_MspInit                     0x080050ed   Thumb Code   314  lto-llvm-af9222.o(.text.HAL_TIM_Base_MspInit)
    [Anonymous Symbol]                       0x080050ec   Section        0  lto-llvm-af9222.o(.text.HAL_TIM_Base_MspInit)
    HAL_TIM_Base_Start_IT                    0x08005229   Thumb Code    54  lto-llvm-af9222.o(.text.HAL_TIM_Base_Start_IT)
    [Anonymous Symbol]                       0x08005228   Section        0  lto-llvm-af9222.o(.text.HAL_TIM_Base_Start_IT)
    HAL_TIM_ConfigClockSource                0x08005261   Thumb Code   354  lto-llvm-af9222.o(.text.HAL_TIM_ConfigClockSource)
    [Anonymous Symbol]                       0x08005260   Section        0  lto-llvm-af9222.o(.text.HAL_TIM_ConfigClockSource)
    HAL_TIM_IC_CaptureCallback               0x080053c5   Thumb Code     8  lto-llvm-af9222.o(.text.HAL_TIM_IC_CaptureCallback)
    [Anonymous Symbol]                       0x080053c4   Section        0  lto-llvm-af9222.o(.text.HAL_TIM_IC_CaptureCallback)
    HAL_TIM_IRQHandler                       0x080053cd   Thumb Code   634  lto-llvm-af9222.o(.text.HAL_TIM_IRQHandler)
    [Anonymous Symbol]                       0x080053cc   Section        0  lto-llvm-af9222.o(.text.HAL_TIM_IRQHandler)
    HAL_TIM_MspPostInit                      0x08005649   Thumb Code   434  lto-llvm-af9222.o(.text.HAL_TIM_MspPostInit)
    [Anonymous Symbol]                       0x08005648   Section        0  lto-llvm-af9222.o(.text.HAL_TIM_MspPostInit)
    HAL_TIM_OC_DelayElapsedCallback          0x080057fd   Thumb Code     8  lto-llvm-af9222.o(.text.HAL_TIM_OC_DelayElapsedCallback)
    [Anonymous Symbol]                       0x080057fc   Section        0  lto-llvm-af9222.o(.text.HAL_TIM_OC_DelayElapsedCallback)
    HAL_TIM_PWM_ConfigChannel                0x08005805   Thumb Code   320  lto-llvm-af9222.o(.text.HAL_TIM_PWM_ConfigChannel)
    [Anonymous Symbol]                       0x08005804   Section        0  lto-llvm-af9222.o(.text.HAL_TIM_PWM_ConfigChannel)
    HAL_TIM_PWM_Init                         0x08005945   Thumb Code    88  lto-llvm-af9222.o(.text.HAL_TIM_PWM_Init)
    [Anonymous Symbol]                       0x08005944   Section        0  lto-llvm-af9222.o(.text.HAL_TIM_PWM_Init)
    HAL_TIM_PWM_MspInit                      0x0800599d   Thumb Code     8  lto-llvm-af9222.o(.text.HAL_TIM_PWM_MspInit)
    [Anonymous Symbol]                       0x0800599c   Section        0  lto-llvm-af9222.o(.text.HAL_TIM_PWM_MspInit)
    HAL_TIM_PWM_PulseFinishedCallback        0x080059a5   Thumb Code     8  lto-llvm-af9222.o(.text.HAL_TIM_PWM_PulseFinishedCallback)
    [Anonymous Symbol]                       0x080059a4   Section        0  lto-llvm-af9222.o(.text.HAL_TIM_PWM_PulseFinishedCallback)
    HAL_TIM_PWM_Start                        0x080059ad   Thumb Code   118  lto-llvm-af9222.o(.text.HAL_TIM_PWM_Start)
    [Anonymous Symbol]                       0x080059ac   Section        0  lto-llvm-af9222.o(.text.HAL_TIM_PWM_Start)
    HAL_TIM_PWM_Stop                         0x08005a25   Thumb Code   184  lto-llvm-af9222.o(.text.HAL_TIM_PWM_Stop)
    [Anonymous Symbol]                       0x08005a24   Section        0  lto-llvm-af9222.o(.text.HAL_TIM_PWM_Stop)
    HAL_TIM_PeriodElapsedCallback            0x08005add   Thumb Code   160  lto-llvm-af9222.o(.text.HAL_TIM_PeriodElapsedCallback)
    [Anonymous Symbol]                       0x08005adc   Section        0  lto-llvm-af9222.o(.text.HAL_TIM_PeriodElapsedCallback)
    HAL_TIM_TriggerCallback                  0x08005b7d   Thumb Code     8  lto-llvm-af9222.o(.text.HAL_TIM_TriggerCallback)
    [Anonymous Symbol]                       0x08005b7c   Section        0  lto-llvm-af9222.o(.text.HAL_TIM_TriggerCallback)
    HAL_UART_ErrorCallback                   0x08005b85   Thumb Code     8  lto-llvm-af9222.o(.text.HAL_UART_ErrorCallback)
    [Anonymous Symbol]                       0x08005b84   Section        0  lto-llvm-af9222.o(.text.HAL_UART_ErrorCallback)
    HAL_UART_IRQHandler                      0x08005b8d   Thumb Code   520  lto-llvm-af9222.o(.text.HAL_UART_IRQHandler)
    [Anonymous Symbol]                       0x08005b8c   Section        0  lto-llvm-af9222.o(.text.HAL_UART_IRQHandler)
    HAL_UART_Init                            0x08005d95   Thumb Code   154  lto-llvm-af9222.o(.text.HAL_UART_Init)
    [Anonymous Symbol]                       0x08005d94   Section        0  lto-llvm-af9222.o(.text.HAL_UART_Init)
    HAL_UART_MspInit                         0x08005e31   Thumb Code   766  lto-llvm-af9222.o(.text.HAL_UART_MspInit)
    [Anonymous Symbol]                       0x08005e30   Section        0  lto-llvm-af9222.o(.text.HAL_UART_MspInit)
    HAL_UART_RxCpltCallback                  0x08006131   Thumb Code     8  lto-llvm-af9222.o(.text.HAL_UART_RxCpltCallback)
    [Anonymous Symbol]                       0x08006130   Section        0  lto-llvm-af9222.o(.text.HAL_UART_RxCpltCallback)
    HAL_UART_TxCpltCallback                  0x08006139   Thumb Code     8  lto-llvm-af9222.o(.text.HAL_UART_TxCpltCallback)
    [Anonymous Symbol]                       0x08006138   Section        0  lto-llvm-af9222.o(.text.HAL_UART_TxCpltCallback)
    [Anonymous Symbol]                       0x08006140   Section        0  lto-llvm-af9222.o(.text.HardFault_Handler)
    IntToUnicode                             0x08006145   Thumb Code   122  lto-llvm-af9222.o(.text.IntToUnicode)
    [Anonymous Symbol]                       0x08006144   Section        0  lto-llvm-af9222.o(.text.IntToUnicode)
    MX_ADC1_Init                             0x080061c1   Thumb Code   124  lto-llvm-af9222.o(.text.MX_ADC1_Init)
    [Anonymous Symbol]                       0x080061c0   Section        0  lto-llvm-af9222.o(.text.MX_ADC1_Init)
    MX_ADC3_Init                             0x0800623d   Thumb Code   124  lto-llvm-af9222.o(.text.MX_ADC3_Init)
    [Anonymous Symbol]                       0x0800623c   Section        0  lto-llvm-af9222.o(.text.MX_ADC3_Init)
    MX_CAN1_Init                             0x080062b9   Thumb Code    70  lto-llvm-af9222.o(.text.MX_CAN1_Init)
    [Anonymous Symbol]                       0x080062b8   Section        0  lto-llvm-af9222.o(.text.MX_CAN1_Init)
    MX_CAN2_Init                             0x08006301   Thumb Code    70  lto-llvm-af9222.o(.text.MX_CAN2_Init)
    [Anonymous Symbol]                       0x08006300   Section        0  lto-llvm-af9222.o(.text.MX_CAN2_Init)
    MX_DMA_Init                              0x08006349   Thumb Code   118  lto-llvm-af9222.o(.text.MX_DMA_Init)
    [Anonymous Symbol]                       0x08006348   Section        0  lto-llvm-af9222.o(.text.MX_DMA_Init)
    MX_GPIO_Init                             0x080063c1   Thumb Code   568  lto-llvm-af9222.o(.text.MX_GPIO_Init)
    [Anonymous Symbol]                       0x080063c0   Section        0  lto-llvm-af9222.o(.text.MX_GPIO_Init)
    MX_I2C3_Init                             0x080065f9   Thumb Code    66  lto-llvm-af9222.o(.text.MX_I2C3_Init)
    [Anonymous Symbol]                       0x080065f8   Section        0  lto-llvm-af9222.o(.text.MX_I2C3_Init)
    MX_IWDG_Init                             0x0800663d   Thumb Code    46  lto-llvm-af9222.o(.text.MX_IWDG_Init)
    [Anonymous Symbol]                       0x0800663c   Section        0  lto-llvm-af9222.o(.text.MX_IWDG_Init)
    MX_SPI1_Init                             0x0800666d   Thumb Code    76  lto-llvm-af9222.o(.text.MX_SPI1_Init)
    [Anonymous Symbol]                       0x0800666c   Section        0  lto-llvm-af9222.o(.text.MX_SPI1_Init)
    MX_SPI2_Init                             0x080066b9   Thumb Code    72  lto-llvm-af9222.o(.text.MX_SPI2_Init)
    [Anonymous Symbol]                       0x080066b8   Section        0  lto-llvm-af9222.o(.text.MX_SPI2_Init)
    MX_TIM10_Init                            0x08006701   Thumb Code    54  lto-llvm-af9222.o(.text.MX_TIM10_Init)
    [Anonymous Symbol]                       0x08006700   Section        0  lto-llvm-af9222.o(.text.MX_TIM10_Init)
    MX_TIM1_Init                             0x08006739   Thumb Code   374  lto-llvm-af9222.o(.text.MX_TIM1_Init)
    [Anonymous Symbol]                       0x08006738   Section        0  lto-llvm-af9222.o(.text.MX_TIM1_Init)
    MX_TIM4_Init                             0x080068b1   Thumb Code   214  lto-llvm-af9222.o(.text.MX_TIM4_Init)
    [Anonymous Symbol]                       0x080068b0   Section        0  lto-llvm-af9222.o(.text.MX_TIM4_Init)
    MX_TIM5_Init                             0x08006989   Thumb Code   272  lto-llvm-af9222.o(.text.MX_TIM5_Init)
    [Anonymous Symbol]                       0x08006988   Section        0  lto-llvm-af9222.o(.text.MX_TIM5_Init)
    MX_TIM8_Init                             0x08006a99   Thumb Code   340  lto-llvm-af9222.o(.text.MX_TIM8_Init)
    [Anonymous Symbol]                       0x08006a98   Section        0  lto-llvm-af9222.o(.text.MX_TIM8_Init)
    MX_USART1_UART_Init                      0x08006bed   Thumb Code    58  lto-llvm-af9222.o(.text.MX_USART1_UART_Init)
    [Anonymous Symbol]                       0x08006bec   Section        0  lto-llvm-af9222.o(.text.MX_USART1_UART_Init)
    MX_USART3_UART_Init                      0x08006c29   Thumb Code    62  lto-llvm-af9222.o(.text.MX_USART3_UART_Init)
    [Anonymous Symbol]                       0x08006c28   Section        0  lto-llvm-af9222.o(.text.MX_USART3_UART_Init)
    MX_USART6_UART_Init                      0x08006c69   Thumb Code    58  lto-llvm-af9222.o(.text.MX_USART6_UART_Init)
    [Anonymous Symbol]                       0x08006c68   Section        0  lto-llvm-af9222.o(.text.MX_USART6_UART_Init)
    MX_USB_DEVICE_Init                       0x08006ca5   Thumb Code    52  lto-llvm-af9222.o(.text.MX_USB_DEVICE_Init)
    [Anonymous Symbol]                       0x08006ca4   Section        0  lto-llvm-af9222.o(.text.MX_USB_DEVICE_Init)
    [Anonymous Symbol]                       0x08006cd8   Section        0  lto-llvm-af9222.o(.text.MemManage_Handler)
    [Anonymous Symbol]                       0x08006cdc   Section        0  lto-llvm-af9222.o(.text.NMI_Handler)
    NVIC_EncodePriority                      0x08006ce1   Thumb Code    98  lto-llvm-af9222.o(.text.NVIC_EncodePriority)
    [Anonymous Symbol]                       0x08006ce0   Section        0  lto-llvm-af9222.o(.text.NVIC_EncodePriority)
    [Anonymous Symbol]                       0x08006d44   Section        0  lto-llvm-af9222.o(.text.OTG_FS_IRQHandler)
    PCD_EP_OutSetupPacket_int                0x08006d4d   Thumb Code   196  lto-llvm-af9222.o(.text.PCD_EP_OutSetupPacket_int)
    [Anonymous Symbol]                       0x08006d4c   Section        0  lto-llvm-af9222.o(.text.PCD_EP_OutSetupPacket_int)
    PCD_EP_OutXfrComplete_int                0x08006e11   Thumb Code   474  lto-llvm-af9222.o(.text.PCD_EP_OutXfrComplete_int)
    [Anonymous Symbol]                       0x08006e10   Section        0  lto-llvm-af9222.o(.text.PCD_EP_OutXfrComplete_int)
    PCD_WriteEmptyTxFifo                     0x08006fed   Thumb Code   296  lto-llvm-af9222.o(.text.PCD_WriteEmptyTxFifo)
    [Anonymous Symbol]                       0x08006fec   Section        0  lto-llvm-af9222.o(.text.PCD_WriteEmptyTxFifo)
    [Anonymous Symbol]                       0x08007114   Section        0  lto-llvm-af9222.o(.text.PendSV_Handler)
    [Anonymous Symbol]                       0x08007118   Section        0  lto-llvm-af9222.o(.text.SVC_Handler)
    SysTick_Config                           0x0800711d   Thumb Code    82  lto-llvm-af9222.o(.text.SysTick_Config)
    [Anonymous Symbol]                       0x0800711c   Section        0  lto-llvm-af9222.o(.text.SysTick_Config)
    [Anonymous Symbol]                       0x08007170   Section        0  lto-llvm-af9222.o(.text.SysTick_Handler)
    SystemClock_Config                       0x08007179   Thumb Code   190  lto-llvm-af9222.o(.text.SystemClock_Config)
    [Anonymous Symbol]                       0x08007178   Section        0  lto-llvm-af9222.o(.text.SystemClock_Config)
    [Anonymous Symbol]                       0x08007238   Section        0  lto-llvm-af9222.o(.text.SystemInit)
    [Anonymous Symbol]                       0x080072a8   Section        0  lto-llvm-af9222.o(.text.TIM1_UP_TIM10_IRQHandler)
    TIM_Base_SetConfig                       0x080072c5   Thumb Code   410  lto-llvm-af9222.o(.text.TIM_Base_SetConfig)
    [Anonymous Symbol]                       0x080072c4   Section        0  lto-llvm-af9222.o(.text.TIM_Base_SetConfig)
    TIM_CCxChannelCmd                        0x08007461   Thumb Code    56  lto-llvm-af9222.o(.text.TIM_CCxChannelCmd)
    [Anonymous Symbol]                       0x08007460   Section        0  lto-llvm-af9222.o(.text.TIM_CCxChannelCmd)
    TIM_ETR_SetConfig                        0x08007499   Thumb Code    52  lto-llvm-af9222.o(.text.TIM_ETR_SetConfig)
    [Anonymous Symbol]                       0x08007498   Section        0  lto-llvm-af9222.o(.text.TIM_ETR_SetConfig)
    TIM_ITRx_SetConfig                       0x080074cd   Thumb Code    42  lto-llvm-af9222.o(.text.TIM_ITRx_SetConfig)
    [Anonymous Symbol]                       0x080074cc   Section        0  lto-llvm-af9222.o(.text.TIM_ITRx_SetConfig)
    TIM_OC1_SetConfig                        0x080074f9   Thumb Code   234  lto-llvm-af9222.o(.text.TIM_OC1_SetConfig)
    [Anonymous Symbol]                       0x080074f8   Section        0  lto-llvm-af9222.o(.text.TIM_OC1_SetConfig)
    TIM_OC2_SetConfig                        0x080075e5   Thumb Code   244  lto-llvm-af9222.o(.text.TIM_OC2_SetConfig)
    [Anonymous Symbol]                       0x080075e4   Section        0  lto-llvm-af9222.o(.text.TIM_OC2_SetConfig)
    TIM_OC3_SetConfig                        0x080076d9   Thumb Code   242  lto-llvm-af9222.o(.text.TIM_OC3_SetConfig)
    [Anonymous Symbol]                       0x080076d8   Section        0  lto-llvm-af9222.o(.text.TIM_OC3_SetConfig)
    TIM_OC4_SetConfig                        0x080077cd   Thumb Code   164  lto-llvm-af9222.o(.text.TIM_OC4_SetConfig)
    [Anonymous Symbol]                       0x080077cc   Section        0  lto-llvm-af9222.o(.text.TIM_OC4_SetConfig)
    TIM_TI1_ConfigInputStage                 0x08007871   Thumb Code    80  lto-llvm-af9222.o(.text.TIM_TI1_ConfigInputStage)
    [Anonymous Symbol]                       0x08007870   Section        0  lto-llvm-af9222.o(.text.TIM_TI1_ConfigInputStage)
    TIM_TI2_ConfigInputStage                 0x080078c1   Thumb Code    82  lto-llvm-af9222.o(.text.TIM_TI2_ConfigInputStage)
    [Anonymous Symbol]                       0x080078c0   Section        0  lto-llvm-af9222.o(.text.TIM_TI2_ConfigInputStage)
    UART_DMAAbortOnError                     0x08007915   Thumb Code    32  lto-llvm-af9222.o(.text.UART_DMAAbortOnError)
    [Anonymous Symbol]                       0x08007914   Section        0  lto-llvm-af9222.o(.text.UART_DMAAbortOnError)
    UART_EndRxTransfer                       0x08007935   Thumb Code    40  lto-llvm-af9222.o(.text.UART_EndRxTransfer)
    [Anonymous Symbol]                       0x08007934   Section        0  lto-llvm-af9222.o(.text.UART_EndRxTransfer)
    UART_EndTransmit_IT                      0x0800795d   Thumb Code    36  lto-llvm-af9222.o(.text.UART_EndTransmit_IT)
    [Anonymous Symbol]                       0x0800795c   Section        0  lto-llvm-af9222.o(.text.UART_EndTransmit_IT)
    UART_Receive_IT                          0x08007981   Thumb Code   234  lto-llvm-af9222.o(.text.UART_Receive_IT)
    [Anonymous Symbol]                       0x08007980   Section        0  lto-llvm-af9222.o(.text.UART_Receive_IT)
    UART_SetConfig                           0x08007a6d   Thumb Code   494  lto-llvm-af9222.o(.text.UART_SetConfig)
    [Anonymous Symbol]                       0x08007a6c   Section        0  lto-llvm-af9222.o(.text.UART_SetConfig)
    UART_Transmit_IT                         0x08007c5d   Thumb Code   156  lto-llvm-af9222.o(.text.UART_Transmit_IT)
    [Anonymous Symbol]                       0x08007c5c   Section        0  lto-llvm-af9222.o(.text.UART_Transmit_IT)
    [Anonymous Symbol]                       0x08007cf8   Section        0  lto-llvm-af9222.o(.text.USART1_IRQHandler)
    [Anonymous Symbol]                       0x08007d08   Section        0  lto-llvm-af9222.o(.text.USART3_IRQHandler)
    [Anonymous Symbol]                       0x08007d10   Section        0  lto-llvm-af9222.o(.text.USART6_IRQHandler)
    USBD_CDC_DataIn                          0x08007d21   Thumb Code   164  lto-llvm-af9222.o(.text.USBD_CDC_DataIn)
    [Anonymous Symbol]                       0x08007d20   Section        0  lto-llvm-af9222.o(.text.USBD_CDC_DataIn)
    USBD_CDC_DataOut                         0x08007dc5   Thumb Code    88  lto-llvm-af9222.o(.text.USBD_CDC_DataOut)
    [Anonymous Symbol]                       0x08007dc4   Section        0  lto-llvm-af9222.o(.text.USBD_CDC_DataOut)
    USBD_CDC_DeInit                          0x08007e1d   Thumb Code   102  lto-llvm-af9222.o(.text.USBD_CDC_DeInit)
    [Anonymous Symbol]                       0x08007e1c   Section        0  lto-llvm-af9222.o(.text.USBD_CDC_DeInit)
    USBD_CDC_EP0_RxReady                     0x08007e85   Thumb Code    72  lto-llvm-af9222.o(.text.USBD_CDC_EP0_RxReady)
    [Anonymous Symbol]                       0x08007e84   Section        0  lto-llvm-af9222.o(.text.USBD_CDC_EP0_RxReady)
    USBD_CDC_GetDeviceQualifierDescriptor    0x08007ecd   Thumb Code    22  lto-llvm-af9222.o(.text.USBD_CDC_GetDeviceQualifierDescriptor)
    [Anonymous Symbol]                       0x08007ecc   Section        0  lto-llvm-af9222.o(.text.USBD_CDC_GetDeviceQualifierDescriptor)
    USBD_CDC_GetFSCfgDesc                    0x08007ee5   Thumb Code    22  lto-llvm-af9222.o(.text.USBD_CDC_GetFSCfgDesc)
    [Anonymous Symbol]                       0x08007ee4   Section        0  lto-llvm-af9222.o(.text.USBD_CDC_GetFSCfgDesc)
    USBD_CDC_GetHSCfgDesc                    0x08007efd   Thumb Code    22  lto-llvm-af9222.o(.text.USBD_CDC_GetHSCfgDesc)
    [Anonymous Symbol]                       0x08007efc   Section        0  lto-llvm-af9222.o(.text.USBD_CDC_GetHSCfgDesc)
    USBD_CDC_GetOtherSpeedCfgDesc            0x08007f15   Thumb Code    22  lto-llvm-af9222.o(.text.USBD_CDC_GetOtherSpeedCfgDesc)
    [Anonymous Symbol]                       0x08007f14   Section        0  lto-llvm-af9222.o(.text.USBD_CDC_GetOtherSpeedCfgDesc)
    USBD_CDC_Init                            0x08007f2d   Thumb Code   242  lto-llvm-af9222.o(.text.USBD_CDC_Init)
    [Anonymous Symbol]                       0x08007f2c   Section        0  lto-llvm-af9222.o(.text.USBD_CDC_Init)
    USBD_CDC_ReceivePacket                   0x08008021   Thumb Code    98  lto-llvm-af9222.o(.text.USBD_CDC_ReceivePacket)
    [Anonymous Symbol]                       0x08008020   Section        0  lto-llvm-af9222.o(.text.USBD_CDC_ReceivePacket)
    USBD_CDC_RegisterInterface               0x08008085   Thumb Code    58  lto-llvm-af9222.o(.text.USBD_CDC_RegisterInterface)
    [Anonymous Symbol]                       0x08008084   Section        0  lto-llvm-af9222.o(.text.USBD_CDC_RegisterInterface)
    USBD_CDC_SetRxBuffer                     0x080080c1   Thumb Code    34  lto-llvm-af9222.o(.text.USBD_CDC_SetRxBuffer)
    [Anonymous Symbol]                       0x080080c0   Section        0  lto-llvm-af9222.o(.text.USBD_CDC_SetRxBuffer)
    USBD_CDC_SetTxBuffer                     0x080080e5   Thumb Code    58  lto-llvm-af9222.o(.text.USBD_CDC_SetTxBuffer)
    [Anonymous Symbol]                       0x080080e4   Section        0  lto-llvm-af9222.o(.text.USBD_CDC_SetTxBuffer)
    USBD_CDC_Setup                           0x08008121   Thumb Code   336  lto-llvm-af9222.o(.text.USBD_CDC_Setup)
    [Anonymous Symbol]                       0x08008120   Section        0  lto-llvm-af9222.o(.text.USBD_CDC_Setup)
    USBD_ClrClassConfig                      0x08008271   Thumb Code    28  lto-llvm-af9222.o(.text.USBD_ClrClassConfig)
    [Anonymous Symbol]                       0x08008270   Section        0  lto-llvm-af9222.o(.text.USBD_ClrClassConfig)
    USBD_ClrFeature                          0x0800828d   Thumb Code    64  lto-llvm-af9222.o(.text.USBD_ClrFeature)
    [Anonymous Symbol]                       0x0800828c   Section        0  lto-llvm-af9222.o(.text.USBD_ClrFeature)
    USBD_CtlContinueRx                       0x080082cd   Thumb Code    30  lto-llvm-af9222.o(.text.USBD_CtlContinueRx)
    [Anonymous Symbol]                       0x080082cc   Section        0  lto-llvm-af9222.o(.text.USBD_CtlContinueRx)
    USBD_CtlContinueSendData                 0x080082ed   Thumb Code    30  lto-llvm-af9222.o(.text.USBD_CtlContinueSendData)
    [Anonymous Symbol]                       0x080082ec   Section        0  lto-llvm-af9222.o(.text.USBD_CtlContinueSendData)
    USBD_CtlError                            0x0800830d   Thumb Code    28  lto-llvm-af9222.o(.text.USBD_CtlError)
    [Anonymous Symbol]                       0x0800830c   Section        0  lto-llvm-af9222.o(.text.USBD_CtlError)
    USBD_CtlPrepareRx                        0x08008329   Thumb Code    58  lto-llvm-af9222.o(.text.USBD_CtlPrepareRx)
    [Anonymous Symbol]                       0x08008328   Section        0  lto-llvm-af9222.o(.text.USBD_CtlPrepareRx)
    USBD_CtlReceiveStatus                    0x08008365   Thumb Code    30  lto-llvm-af9222.o(.text.USBD_CtlReceiveStatus)
    [Anonymous Symbol]                       0x08008364   Section        0  lto-llvm-af9222.o(.text.USBD_CtlReceiveStatus)
    USBD_CtlSendData                         0x08008385   Thumb Code    54  lto-llvm-af9222.o(.text.USBD_CtlSendData)
    [Anonymous Symbol]                       0x08008384   Section        0  lto-llvm-af9222.o(.text.USBD_CtlSendData)
    USBD_CtlSendStatus                       0x080083bd   Thumb Code    30  lto-llvm-af9222.o(.text.USBD_CtlSendStatus)
    [Anonymous Symbol]                       0x080083bc   Section        0  lto-llvm-af9222.o(.text.USBD_CtlSendStatus)
    USBD_FS_ConfigStrDescriptor              0x080083dd   Thumb Code    62  lto-llvm-af9222.o(.text.USBD_FS_ConfigStrDescriptor)
    [Anonymous Symbol]                       0x080083dc   Section        0  lto-llvm-af9222.o(.text.USBD_FS_ConfigStrDescriptor)
    USBD_FS_DeviceDescriptor                 0x0800841d   Thumb Code    26  lto-llvm-af9222.o(.text.USBD_FS_DeviceDescriptor)
    [Anonymous Symbol]                       0x0800841c   Section        0  lto-llvm-af9222.o(.text.USBD_FS_DeviceDescriptor)
    USBD_FS_InterfaceStrDescriptor           0x08008439   Thumb Code    62  lto-llvm-af9222.o(.text.USBD_FS_InterfaceStrDescriptor)
    [Anonymous Symbol]                       0x08008438   Section        0  lto-llvm-af9222.o(.text.USBD_FS_InterfaceStrDescriptor)
    USBD_FS_LangIDStrDescriptor              0x08008479   Thumb Code    26  lto-llvm-af9222.o(.text.USBD_FS_LangIDStrDescriptor)
    [Anonymous Symbol]                       0x08008478   Section        0  lto-llvm-af9222.o(.text.USBD_FS_LangIDStrDescriptor)
    USBD_FS_ManufacturerStrDescriptor        0x08008495   Thumb Code    36  lto-llvm-af9222.o(.text.USBD_FS_ManufacturerStrDescriptor)
    [Anonymous Symbol]                       0x08008494   Section        0  lto-llvm-af9222.o(.text.USBD_FS_ManufacturerStrDescriptor)
    USBD_FS_ProductStrDescriptor             0x080084b9   Thumb Code    62  lto-llvm-af9222.o(.text.USBD_FS_ProductStrDescriptor)
    [Anonymous Symbol]                       0x080084b8   Section        0  lto-llvm-af9222.o(.text.USBD_FS_ProductStrDescriptor)
    USBD_FS_SerialStrDescriptor              0x080084f9   Thumb Code    32  lto-llvm-af9222.o(.text.USBD_FS_SerialStrDescriptor)
    [Anonymous Symbol]                       0x080084f8   Section        0  lto-llvm-af9222.o(.text.USBD_FS_SerialStrDescriptor)
    USBD_GetConfig                           0x08008519   Thumb Code    96  lto-llvm-af9222.o(.text.USBD_GetConfig)
    [Anonymous Symbol]                       0x08008518   Section        0  lto-llvm-af9222.o(.text.USBD_GetConfig)
    USBD_GetDescriptor                       0x08008579   Thumb Code   428  lto-llvm-af9222.o(.text.USBD_GetDescriptor)
    [Anonymous Symbol]                       0x08008578   Section        0  lto-llvm-af9222.o(.text.USBD_GetDescriptor)
    USBD_GetLen                              0x08008725   Thumb Code    46  lto-llvm-af9222.o(.text.USBD_GetLen)
    [Anonymous Symbol]                       0x08008724   Section        0  lto-llvm-af9222.o(.text.USBD_GetLen)
    USBD_GetStatus                           0x08008755   Thumb Code    98  lto-llvm-af9222.o(.text.USBD_GetStatus)
    [Anonymous Symbol]                       0x08008754   Section        0  lto-llvm-af9222.o(.text.USBD_GetStatus)
    USBD_GetString                           0x080087b9   Thumb Code   136  lto-llvm-af9222.o(.text.USBD_GetString)
    [Anonymous Symbol]                       0x080087b8   Section        0  lto-llvm-af9222.o(.text.USBD_GetString)
    USBD_Get_USB_Status                      0x08008841   Thumb Code    76  lto-llvm-af9222.o(.text.USBD_Get_USB_Status)
    [Anonymous Symbol]                       0x08008840   Section        0  lto-llvm-af9222.o(.text.USBD_Get_USB_Status)
    USBD_Init                                0x0800888d   Thumb Code   118  lto-llvm-af9222.o(.text.USBD_Init)
    [Anonymous Symbol]                       0x0800888c   Section        0  lto-llvm-af9222.o(.text.USBD_Init)
    USBD_LL_ClearStallEP                     0x08008905   Thumb Code    54  lto-llvm-af9222.o(.text.USBD_LL_ClearStallEP)
    [Anonymous Symbol]                       0x08008904   Section        0  lto-llvm-af9222.o(.text.USBD_LL_ClearStallEP)
    USBD_LL_CloseEP                          0x0800893d   Thumb Code    54  lto-llvm-af9222.o(.text.USBD_LL_CloseEP)
    [Anonymous Symbol]                       0x0800893c   Section        0  lto-llvm-af9222.o(.text.USBD_LL_CloseEP)
    USBD_LL_DataInStage                      0x08008975   Thumb Code   350  lto-llvm-af9222.o(.text.USBD_LL_DataInStage)
    [Anonymous Symbol]                       0x08008974   Section        0  lto-llvm-af9222.o(.text.USBD_LL_DataInStage)
    USBD_LL_DataOutStage                     0x08008ad5   Thumb Code   242  lto-llvm-af9222.o(.text.USBD_LL_DataOutStage)
    [Anonymous Symbol]                       0x08008ad4   Section        0  lto-llvm-af9222.o(.text.USBD_LL_DataOutStage)
    USBD_LL_DevConnected                     0x08008bc9   Thumb Code     8  lto-llvm-af9222.o(.text.USBD_LL_DevConnected)
    [Anonymous Symbol]                       0x08008bc8   Section        0  lto-llvm-af9222.o(.text.USBD_LL_DevConnected)
    USBD_LL_DevDisconnected                  0x08008bd1   Thumb Code    30  lto-llvm-af9222.o(.text.USBD_LL_DevDisconnected)
    [Anonymous Symbol]                       0x08008bd0   Section        0  lto-llvm-af9222.o(.text.USBD_LL_DevDisconnected)
    USBD_LL_GetRxDataSize                    0x08008bf1   Thumb Code    28  lto-llvm-af9222.o(.text.USBD_LL_GetRxDataSize)
    [Anonymous Symbol]                       0x08008bf0   Section        0  lto-llvm-af9222.o(.text.USBD_LL_GetRxDataSize)
    USBD_LL_Init                             0x08008c0d   Thumb Code   104  lto-llvm-af9222.o(.text.USBD_LL_Init)
    [Anonymous Symbol]                       0x08008c0c   Section        0  lto-llvm-af9222.o(.text.USBD_LL_Init)
    USBD_LL_IsStallEP                        0x08008c75   Thumb Code    92  lto-llvm-af9222.o(.text.USBD_LL_IsStallEP)
    [Anonymous Symbol]                       0x08008c74   Section        0  lto-llvm-af9222.o(.text.USBD_LL_IsStallEP)
    USBD_LL_IsoINIncomplete                  0x08008cd1   Thumb Code    12  lto-llvm-af9222.o(.text.USBD_LL_IsoINIncomplete)
    [Anonymous Symbol]                       0x08008cd0   Section        0  lto-llvm-af9222.o(.text.USBD_LL_IsoINIncomplete)
    USBD_LL_IsoOUTIncomplete                 0x08008cdd   Thumb Code    12  lto-llvm-af9222.o(.text.USBD_LL_IsoOUTIncomplete)
    [Anonymous Symbol]                       0x08008cdc   Section        0  lto-llvm-af9222.o(.text.USBD_LL_IsoOUTIncomplete)
    USBD_LL_OpenEP                           0x08008ce9   Thumb Code    70  lto-llvm-af9222.o(.text.USBD_LL_OpenEP)
    [Anonymous Symbol]                       0x08008ce8   Section        0  lto-llvm-af9222.o(.text.USBD_LL_OpenEP)
    USBD_LL_PrepareReceive                   0x08008d31   Thumb Code    66  lto-llvm-af9222.o(.text.USBD_LL_PrepareReceive)
    [Anonymous Symbol]                       0x08008d30   Section        0  lto-llvm-af9222.o(.text.USBD_LL_PrepareReceive)
    USBD_LL_Reset                            0x08008d75   Thumb Code   106  lto-llvm-af9222.o(.text.USBD_LL_Reset)
    [Anonymous Symbol]                       0x08008d74   Section        0  lto-llvm-af9222.o(.text.USBD_LL_Reset)
    USBD_LL_Resume                           0x08008de1   Thumb Code    18  lto-llvm-af9222.o(.text.USBD_LL_Resume)
    [Anonymous Symbol]                       0x08008de0   Section        0  lto-llvm-af9222.o(.text.USBD_LL_Resume)
    USBD_LL_SOF                              0x08008df5   Thumb Code    48  lto-llvm-af9222.o(.text.USBD_LL_SOF)
    [Anonymous Symbol]                       0x08008df4   Section        0  lto-llvm-af9222.o(.text.USBD_LL_SOF)
    USBD_LL_SetSpeed                         0x08008e25   Thumb Code    20  lto-llvm-af9222.o(.text.USBD_LL_SetSpeed)
    [Anonymous Symbol]                       0x08008e24   Section        0  lto-llvm-af9222.o(.text.USBD_LL_SetSpeed)
    USBD_LL_SetUSBAddress                    0x08008e39   Thumb Code    54  lto-llvm-af9222.o(.text.USBD_LL_SetUSBAddress)
    [Anonymous Symbol]                       0x08008e38   Section        0  lto-llvm-af9222.o(.text.USBD_LL_SetUSBAddress)
    USBD_LL_SetupStage                       0x08008e71   Thumb Code   120  lto-llvm-af9222.o(.text.USBD_LL_SetupStage)
    [Anonymous Symbol]                       0x08008e70   Section        0  lto-llvm-af9222.o(.text.USBD_LL_SetupStage)
    USBD_LL_StallEP                          0x08008ee9   Thumb Code    54  lto-llvm-af9222.o(.text.USBD_LL_StallEP)
    [Anonymous Symbol]                       0x08008ee8   Section        0  lto-llvm-af9222.o(.text.USBD_LL_StallEP)
    USBD_LL_Start                            0x08008f21   Thumb Code    46  lto-llvm-af9222.o(.text.USBD_LL_Start)
    [Anonymous Symbol]                       0x08008f20   Section        0  lto-llvm-af9222.o(.text.USBD_LL_Start)
    USBD_LL_Suspend                          0x08008f51   Thumb Code    26  lto-llvm-af9222.o(.text.USBD_LL_Suspend)
    [Anonymous Symbol]                       0x08008f50   Section        0  lto-llvm-af9222.o(.text.USBD_LL_Suspend)
    USBD_LL_Transmit                         0x08008f6d   Thumb Code    66  lto-llvm-af9222.o(.text.USBD_LL_Transmit)
    [Anonymous Symbol]                       0x08008f6c   Section        0  lto-llvm-af9222.o(.text.USBD_LL_Transmit)
    USBD_ParseSetupRequest                   0x08008fb1   Thumb Code    68  lto-llvm-af9222.o(.text.USBD_ParseSetupRequest)
    [Anonymous Symbol]                       0x08008fb0   Section        0  lto-llvm-af9222.o(.text.USBD_ParseSetupRequest)
    USBD_RegisterClass                       0x08008ff5   Thumb Code    66  lto-llvm-af9222.o(.text.USBD_RegisterClass)
    [Anonymous Symbol]                       0x08008ff4   Section        0  lto-llvm-af9222.o(.text.USBD_RegisterClass)
    USBD_RunTestMode                         0x08009039   Thumb Code     8  lto-llvm-af9222.o(.text.USBD_RunTestMode)
    [Anonymous Symbol]                       0x08009038   Section        0  lto-llvm-af9222.o(.text.USBD_RunTestMode)
    USBD_SetAddress                          0x08009041   Thumb Code   140  lto-llvm-af9222.o(.text.USBD_SetAddress)
    [Anonymous Symbol]                       0x08009040   Section        0  lto-llvm-af9222.o(.text.USBD_SetAddress)
    USBD_SetClassConfig                      0x080090cd   Thumb Code    62  lto-llvm-af9222.o(.text.USBD_SetClassConfig)
    [Anonymous Symbol]                       0x080090cc   Section        0  lto-llvm-af9222.o(.text.USBD_SetClassConfig)
    USBD_SetConfig                           0x0800910d   Thumb Code   306  lto-llvm-af9222.o(.text.USBD_SetConfig)
    [Anonymous Symbol]                       0x0800910c   Section        0  lto-llvm-af9222.o(.text.USBD_SetConfig)
    USBD_SetFeature                          0x08009241   Thumb Code    38  lto-llvm-af9222.o(.text.USBD_SetFeature)
    [Anonymous Symbol]                       0x08009240   Section        0  lto-llvm-af9222.o(.text.USBD_SetFeature)
    USBD_Start                               0x08009269   Thumb Code    24  lto-llvm-af9222.o(.text.USBD_Start)
    [Anonymous Symbol]                       0x08009268   Section        0  lto-llvm-af9222.o(.text.USBD_Start)
    USBD_StdDevReq                           0x08009281   Thumb Code   170  lto-llvm-af9222.o(.text.USBD_StdDevReq)
    [Anonymous Symbol]                       0x08009280   Section        0  lto-llvm-af9222.o(.text.USBD_StdDevReq)
    USBD_StdEPReq                            0x0800932d   Thumb Code   772  lto-llvm-af9222.o(.text.USBD_StdEPReq)
    [Anonymous Symbol]                       0x0800932c   Section        0  lto-llvm-af9222.o(.text.USBD_StdEPReq)
    USBD_StdItfReq                           0x08009631   Thumb Code   142  lto-llvm-af9222.o(.text.USBD_StdItfReq)
    [Anonymous Symbol]                       0x08009630   Section        0  lto-llvm-af9222.o(.text.USBD_StdItfReq)
    USB_ActivateEndpoint                     0x080096c1   Thumb Code   220  lto-llvm-af9222.o(.text.USB_ActivateEndpoint)
    [Anonymous Symbol]                       0x080096c0   Section        0  lto-llvm-af9222.o(.text.USB_ActivateEndpoint)
    USB_ActivateSetup                        0x0800979d   Thumb Code    74  lto-llvm-af9222.o(.text.USB_ActivateSetup)
    [Anonymous Symbol]                       0x0800979c   Section        0  lto-llvm-af9222.o(.text.USB_ActivateSetup)
    USB_CoreInit                             0x080097e9   Thumb Code   246  lto-llvm-af9222.o(.text.USB_CoreInit)
    [Anonymous Symbol]                       0x080097e8   Section        0  lto-llvm-af9222.o(.text.USB_CoreInit)
    USB_CoreReset                            0x080098e1   Thumb Code   126  lto-llvm-af9222.o(.text.USB_CoreReset)
    [Anonymous Symbol]                       0x080098e0   Section        0  lto-llvm-af9222.o(.text.USB_CoreReset)
    USB_DeactivateEndpoint                   0x08009961   Thumb Code   194  lto-llvm-af9222.o(.text.USB_DeactivateEndpoint)
    [Anonymous Symbol]                       0x08009960   Section        0  lto-llvm-af9222.o(.text.USB_DeactivateEndpoint)
    USB_DevConnect                           0x08009a25   Thumb Code    34  lto-llvm-af9222.o(.text.USB_DevConnect)
    [Anonymous Symbol]                       0x08009a24   Section        0  lto-llvm-af9222.o(.text.USB_DevConnect)
    USB_DevDisconnect                        0x08009a49   Thumb Code    34  lto-llvm-af9222.o(.text.USB_DevDisconnect)
    [Anonymous Symbol]                       0x08009a48   Section        0  lto-llvm-af9222.o(.text.USB_DevDisconnect)
    USB_DevInit                              0x08009a6d   Thumb Code   726  lto-llvm-af9222.o(.text.USB_DevInit)
    [Anonymous Symbol]                       0x08009a6c   Section        0  lto-llvm-af9222.o(.text.USB_DevInit)
    USB_DisableGlobalInt                     0x08009d45   Thumb Code    18  lto-llvm-af9222.o(.text.USB_DisableGlobalInt)
    [Anonymous Symbol]                       0x08009d44   Section        0  lto-llvm-af9222.o(.text.USB_DisableGlobalInt)
    USB_EP0StartXfer                         0x08009d59   Thumb Code   494  lto-llvm-af9222.o(.text.USB_EP0StartXfer)
    [Anonymous Symbol]                       0x08009d58   Section        0  lto-llvm-af9222.o(.text.USB_EP0StartXfer)
    USB_EP0_OutStart                         0x08009f49   Thumb Code   154  lto-llvm-af9222.o(.text.USB_EP0_OutStart)
    [Anonymous Symbol]                       0x08009f48   Section        0  lto-llvm-af9222.o(.text.USB_EP0_OutStart)
    USB_EPClearStall                         0x08009fe5   Thumb Code   158  lto-llvm-af9222.o(.text.USB_EPClearStall)
    [Anonymous Symbol]                       0x08009fe4   Section        0  lto-llvm-af9222.o(.text.USB_EPClearStall)
    USB_EPSetStall                           0x0800a085   Thumb Code   166  lto-llvm-af9222.o(.text.USB_EPSetStall)
    [Anonymous Symbol]                       0x0800a084   Section        0  lto-llvm-af9222.o(.text.USB_EPSetStall)
    USB_EPStartXfer                          0x0800a12d   Thumb Code   862  lto-llvm-af9222.o(.text.USB_EPStartXfer)
    [Anonymous Symbol]                       0x0800a12c   Section        0  lto-llvm-af9222.o(.text.USB_EPStartXfer)
    USB_EnableGlobalInt                      0x0800a48d   Thumb Code    18  lto-llvm-af9222.o(.text.USB_EnableGlobalInt)
    [Anonymous Symbol]                       0x0800a48c   Section        0  lto-llvm-af9222.o(.text.USB_EnableGlobalInt)
    USB_FlushRxFifo                          0x0800a4a1   Thumb Code    76  lto-llvm-af9222.o(.text.USB_FlushRxFifo)
    [Anonymous Symbol]                       0x0800a4a0   Section        0  lto-llvm-af9222.o(.text.USB_FlushRxFifo)
    USB_FlushTxFifo                          0x0800a4ed   Thumb Code    84  lto-llvm-af9222.o(.text.USB_FlushTxFifo)
    [Anonymous Symbol]                       0x0800a4ec   Section        0  lto-llvm-af9222.o(.text.USB_FlushTxFifo)
    USB_GetDevSpeed                          0x0800a541   Thumb Code    76  lto-llvm-af9222.o(.text.USB_GetDevSpeed)
    [Anonymous Symbol]                       0x0800a540   Section        0  lto-llvm-af9222.o(.text.USB_GetDevSpeed)
    USB_GetMode                              0x0800a58d   Thumb Code    16  lto-llvm-af9222.o(.text.USB_GetMode)
    [Anonymous Symbol]                       0x0800a58c   Section        0  lto-llvm-af9222.o(.text.USB_GetMode)
    USB_ReadDevAllInEpInterrupt              0x0800a59d   Thumb Code    36  lto-llvm-af9222.o(.text.USB_ReadDevAllInEpInterrupt)
    [Anonymous Symbol]                       0x0800a59c   Section        0  lto-llvm-af9222.o(.text.USB_ReadDevAllInEpInterrupt)
    USB_ReadDevAllOutEpInterrupt             0x0800a5c1   Thumb Code    36  lto-llvm-af9222.o(.text.USB_ReadDevAllOutEpInterrupt)
    [Anonymous Symbol]                       0x0800a5c0   Section        0  lto-llvm-af9222.o(.text.USB_ReadDevAllOutEpInterrupt)
    USB_ReadDevInEPInterrupt                 0x0800a5e5   Thumb Code    78  lto-llvm-af9222.o(.text.USB_ReadDevInEPInterrupt)
    [Anonymous Symbol]                       0x0800a5e4   Section        0  lto-llvm-af9222.o(.text.USB_ReadDevInEPInterrupt)
    USB_ReadDevOutEPInterrupt                0x0800a635   Thumb Code    46  lto-llvm-af9222.o(.text.USB_ReadDevOutEPInterrupt)
    [Anonymous Symbol]                       0x0800a634   Section        0  lto-llvm-af9222.o(.text.USB_ReadDevOutEPInterrupt)
    USB_ReadInterrupts                       0x0800a665   Thumb Code    26  lto-llvm-af9222.o(.text.USB_ReadInterrupts)
    [Anonymous Symbol]                       0x0800a664   Section        0  lto-llvm-af9222.o(.text.USB_ReadInterrupts)
    USB_ReadPacket                           0x0800a681   Thumb Code    76  lto-llvm-af9222.o(.text.USB_ReadPacket)
    [Anonymous Symbol]                       0x0800a680   Section        0  lto-llvm-af9222.o(.text.USB_ReadPacket)
    USB_SetCurrentMode                       0x0800a6cd   Thumb Code    92  lto-llvm-af9222.o(.text.USB_SetCurrentMode)
    [Anonymous Symbol]                       0x0800a6cc   Section        0  lto-llvm-af9222.o(.text.USB_SetCurrentMode)
    USB_SetDevAddress                        0x0800a729   Thumb Code    52  lto-llvm-af9222.o(.text.USB_SetDevAddress)
    [Anonymous Symbol]                       0x0800a728   Section        0  lto-llvm-af9222.o(.text.USB_SetDevAddress)
    USB_SetDevSpeed                          0x0800a75d   Thumb Code    32  lto-llvm-af9222.o(.text.USB_SetDevSpeed)
    [Anonymous Symbol]                       0x0800a75c   Section        0  lto-llvm-af9222.o(.text.USB_SetDevSpeed)
    USB_SetTurnaroundTime                    0x0800a77d   Thumb Code   440  lto-llvm-af9222.o(.text.USB_SetTurnaroundTime)
    [Anonymous Symbol]                       0x0800a77c   Section        0  lto-llvm-af9222.o(.text.USB_SetTurnaroundTime)
    USB_WritePacket                          0x0800a935   Thumb Code   106  lto-llvm-af9222.o(.text.USB_WritePacket)
    [Anonymous Symbol]                       0x0800a934   Section        0  lto-llvm-af9222.o(.text.USB_WritePacket)
    [Anonymous Symbol]                       0x0800a9a0   Section        0  lto-llvm-af9222.o(.text.UsageFault_Handler)
    _GLOBAL__sub_I_ChassisTask.cpp           0x0800a9a5   Thumb Code    22  lto-llvm-af9222.o(.text._GLOBAL__sub_I_ChassisTask.cpp)
    [Anonymous Symbol]                       0x0800a9a4   Section        0  lto-llvm-af9222.o(.text._GLOBAL__sub_I_ChassisTask.cpp)
    _GLOBAL__sub_I_UserTask.cpp              0x0800a9bd   Thumb Code    14  lto-llvm-af9222.o(.text._GLOBAL__sub_I_UserTask.cpp)
    [Anonymous Symbol]                       0x0800a9bc   Section        0  lto-llvm-af9222.o(.text._GLOBAL__sub_I_UserTask.cpp)
    CtrlHandle()                             0x0800a9cd   Thumb Code   148  lto-llvm-af9222.o(.text._Z10CtrlHandlev)
    [Anonymous Symbol]                       0x0800a9cc   Section        0  lto-llvm-af9222.o(.text._Z10CtrlHandlev)
    UserHandle()                             0x0800aa61   Thumb Code    28  lto-llvm-af9222.o(.text._Z10UserHandlev)
    [Anonymous Symbol]                       0x0800aa60   Section        0  lto-llvm-af9222.o(.text._Z10UserHandlev)
    ChassisStop()                            0x0800aa7d   Thumb Code    52  lto-llvm-af9222.o(.text._Z11ChassisStopv)
    [Anonymous Symbol]                       0x0800aa7c   Section        0  lto-llvm-af9222.o(.text._Z11ChassisStopv)
    ChassisHandle()                          0x0800aab1   Thumb Code    54  lto-llvm-af9222.o(.text._Z13ChassisHandlev)
    [Anonymous Symbol]                       0x0800aab0   Section        0  lto-llvm-af9222.o(.text._Z13ChassisHandlev)
    aRGB_led_show(unsigned int)              0x0800aae9   Thumb Code   106  lto-llvm-af9222.o(.text._Z13aRGB_led_showj)
    [Anonymous Symbol]                       0x0800aae8   Section        0  lto-llvm-af9222.o(.text._Z13aRGB_led_showj)
    bsp_flash_read(flash_data_t*)            0x0800ab55   Thumb Code    34  lto-llvm-af9222.o(.text._Z14bsp_flash_readP12flash_data_t)
    [Anonymous Symbol]                       0x0800ab54   Section        0  lto-llvm-af9222.o(.text._Z14bsp_flash_readP12flash_data_t)
    aRGB_led_change(unsigned int)            0x0800ab79   Thumb Code   372  lto-llvm-af9222.o(.text._Z15aRGB_led_changej)
    [Anonymous Symbol]                       0x0800ab78   Section        0  lto-llvm-af9222.o(.text._Z15aRGB_led_changej)
    bsp_ADC_vccMoni()                        0x0800aced   Thumb Code   440  lto-llvm-af9222.o(.text._Z15bsp_ADC_vccMoniv)
    [Anonymous Symbol]                       0x0800acec   Section        0  lto-llvm-af9222.o(.text._Z15bsp_ADC_vccMoniv)
    std::__2::enable_if<std::is_integral<unsigned int>::value, double>::type log2[abi:v16000]<unsigned int>(unsigned int) 0x0800aea5   Thumb Code    24  lto-llvm-af9222.o(.text._Z4log2B6v16000IjENSt3__29enable_ifIXsr3std11is_integralIT_EE5valueEdE4typeES2_)
    [Anonymous Symbol]                       0x0800aea4   Section        0  lto-llvm-af9222.o(.text._Z4log2B6v16000IjENSt3__29enable_ifIXsr3std11is_integralIT_EE5valueEdE4typeES2_)
    UserStop()                               0x0800aebd   Thumb Code    20  lto-llvm-af9222.o(.text._Z8UserStopv)
    [Anonymous Symbol]                       0x0800aebc   Section        0  lto-llvm-af9222.o(.text._Z8UserStopv)
    RemoteControl::sbus_to_rc(unsigned char const volatile*) 0x0800aed1   Thumb Code   316  lto-llvm-af9222.o(.text._ZN13RemoteControl10sbus_to_rcEPVKh)
    [Anonymous Symbol]                       0x0800aed0   Section        0  lto-llvm-af9222.o(.text._ZN13RemoteControl10sbus_to_rcEPVKh)
    RemoteControl::init()                    0x0800b00d   Thumb Code   162  lto-llvm-af9222.o(.text._ZN13RemoteControl4initEv)
    [Anonymous Symbol]                       0x0800b00c   Section        0  lto-llvm-af9222.o(.text._ZN13RemoteControl4initEv)
    RemoteControl::ITHandle()                0x0800b0b1   Thumb Code   372  lto-llvm-af9222.o(.text._ZN13RemoteControl8ITHandleEv)
    [Anonymous Symbol]                       0x0800b0b0   Section        0  lto-llvm-af9222.o(.text._ZN13RemoteControl8ITHandleEv)
    PID::PIDCalc(float, float)               0x0800b225   Thumb Code   556  lto-llvm-af9222.o(.text._ZN3PID7PIDCalcEff)
    [Anonymous Symbol]                       0x0800b224   Section        0  lto-llvm-af9222.o(.text._ZN3PID7PIDCalcEff)
    Motor::ErrorHandle()                     0x0800b451   Thumb Code     8  lto-llvm-af9222.o(.text._ZN5Motor11ErrorHandleEv)
    [Anonymous Symbol]                       0x0800b450   Section        0  lto-llvm-af9222.o(.text._ZN5Motor11ErrorHandleEv)
    Motor::IntensityCalc()                   0x0800b459   Thumb Code   110  lto-llvm-af9222.o(.text._ZN5Motor13IntensityCalcEv)
    [Anonymous Symbol]                       0x0800b458   Section        0  lto-llvm-af9222.o(.text._ZN5Motor13IntensityCalcEv)
    Motor::CANPackageSend()                  0x0800b4c9   Thumb Code   364  lto-llvm-af9222.o(.text._ZN5Motor14CANPackageSendEv)
    [Anonymous Symbol]                       0x0800b4c8   Section        0  lto-llvm-af9222.o(.text._ZN5Motor14CANPackageSendEv)
    Motor::MotorStateUpdate()                0x0800b635   Thumb Code   496  lto-llvm-af9222.o(.text._ZN5Motor16MotorStateUpdateEv)
    [Anonymous Symbol]                       0x0800b634   Section        0  lto-llvm-af9222.o(.text._ZN5Motor16MotorStateUpdateEv)
    Motor::Init()                            0x0800b825   Thumb Code    90  lto-llvm-af9222.o(.text._ZN5Motor4InitEv)
    [Anonymous Symbol]                       0x0800b824   Section        0  lto-llvm-af9222.o(.text._ZN5Motor4InitEv)
    Motor::Stop()                            0x0800b881   Thumb Code    14  lto-llvm-af9222.o(.text._ZN5Motor4StopEv)
    [Anonymous Symbol]                       0x0800b880   Section        0  lto-llvm-af9222.o(.text._ZN5Motor4StopEv)
    Motor::Handle()                          0x0800b891   Thumb Code    98  lto-llvm-af9222.o(.text._ZN5Motor6HandleEv)
    [Anonymous Symbol]                       0x0800b890   Section        0  lto-llvm-af9222.o(.text._ZN5Motor6HandleEv)
    Motor::IT_Handle(__CAN_HandleTypeDef*)   0x0800b8f5   Thumb Code   180  lto-llvm-af9222.o(.text._ZN5Motor9IT_HandleEP19__CAN_HandleTypeDef)
    [Anonymous Symbol]                       0x0800b8f4   Section        0  lto-llvm-af9222.o(.text._ZN5Motor9IT_HandleEP19__CAN_HandleTypeDef)
    Motor::Motor__sub_object(unsigned int, MOTOR_INIT_t*) 0x0800b9a9   Thumb Code   200  lto-llvm-af9222.o(.text._ZN5MotorC2EjP12MOTOR_INIT_t)
    [Anonymous Symbol]                       0x0800b9a8   Section        0  lto-llvm-af9222.o(.text._ZN5MotorC2EjP12MOTOR_INIT_t)
    Motor::~Motor__sub_object()              0x0800ba71   Thumb Code    40  lto-llvm-af9222.o(.text._ZN5MotorD2Ev)
    [Anonymous Symbol]                       0x0800ba70   Section        0  lto-llvm-af9222.o(.text._ZN5MotorD2Ev)
    Servo::ErrorHandle()                     0x0800ba99   Thumb Code     8  lto-llvm-af9222.o(.text._ZN5Servo11ErrorHandleEv)
    [Anonymous Symbol]                       0x0800ba98   Section        0  lto-llvm-af9222.o(.text._ZN5Servo11ErrorHandleEv)
    Servo::SetTargetAngle(float)             0x0800baa1   Thumb Code   136  lto-llvm-af9222.o(.text._ZN5Servo14SetTargetAngleEf)
    [Anonymous Symbol]                       0x0800baa0   Section        0  lto-llvm-af9222.o(.text._ZN5Servo14SetTargetAngleEf)
    Servo::stop()                            0x0800bb29   Thumb Code    72  lto-llvm-af9222.o(.text._ZN5Servo4stopEv)
    [Anonymous Symbol]                       0x0800bb28   Section        0  lto-llvm-af9222.o(.text._ZN5Servo4stopEv)
    Servo::Handle()                          0x0800bb71   Thumb Code   444  lto-llvm-af9222.o(.text._ZN5Servo6HandleEv)
    [Anonymous Symbol]                       0x0800bb70   Section        0  lto-llvm-af9222.o(.text._ZN5Servo6HandleEv)
    Servo::Servo__sub_object(SERVO_INIT_T*)  0x0800bd31   Thumb Code   524  lto-llvm-af9222.o(.text._ZN5ServoC2EP12SERVO_INIT_T)
    [Anonymous Symbol]                       0x0800bd30   Section        0  lto-llvm-af9222.o(.text._ZN5ServoC2EP12SERVO_INIT_T)
    Device::Device__sub_object()             0x0800bf3d   Thumb Code    22  lto-llvm-af9222.o(.text._ZN6DeviceC2Ev)
    [Anonymous Symbol]                       0x0800bf3c   Section        0  lto-llvm-af9222.o(.text._ZN6DeviceC2Ev)
    __NVIC_EnableIRQ                         0x0800bf55   Thumb Code    50  lto-llvm-af9222.o(.text.__NVIC_EnableIRQ)
    [Anonymous Symbol]                       0x0800bf54   Section        0  lto-llvm-af9222.o(.text.__NVIC_EnableIRQ)
    __NVIC_GetPriorityGrouping               0x0800bf89   Thumb Code    16  lto-llvm-af9222.o(.text.__NVIC_GetPriorityGrouping)
    [Anonymous Symbol]                       0x0800bf88   Section        0  lto-llvm-af9222.o(.text.__NVIC_GetPriorityGrouping)
    __NVIC_SetPriority                       0x0800bf99   Thumb Code    66  lto-llvm-af9222.o(.text.__NVIC_SetPriority)
    [Anonymous Symbol]                       0x0800bf98   Section        0  lto-llvm-af9222.o(.text.__NVIC_SetPriority)
    __NVIC_SetPriorityGrouping               0x0800bfdd   Thumb Code    60  lto-llvm-af9222.o(.text.__NVIC_SetPriorityGrouping)
    [Anonymous Symbol]                       0x0800bfdc   Section        0  lto-llvm-af9222.o(.text.__NVIC_SetPriorityGrouping)
    [Anonymous Symbol]                       0x0800c018   Section        0  cxa_virtual.cpp.o(.text.__cxa_pure_virtual)
    __cxx_global_var_init                    0x0800c041   Thumb Code    52  lto-llvm-af9222.o(.text.__cxx_global_var_init)
    [Anonymous Symbol]                       0x0800c040   Section        0  lto-llvm-af9222.o(.text.__cxx_global_var_init)
    __cxx_global_var_init.1                  0x0800c075   Thumb Code    52  lto-llvm-af9222.o(.text.__cxx_global_var_init.1)
    [Anonymous Symbol]                       0x0800c074   Section        0  lto-llvm-af9222.o(.text.__cxx_global_var_init.1)
    __cxx_global_var_init.1.275              0x0800c0a9   Thumb Code    20  lto-llvm-af9222.o(.text.__cxx_global_var_init.1.275)
    [Anonymous Symbol]                       0x0800c0a8   Section        0  lto-llvm-af9222.o(.text.__cxx_global_var_init.1.275)
    __cxx_global_var_init.2                  0x0800c0bd   Thumb Code    52  lto-llvm-af9222.o(.text.__cxx_global_var_init.2)
    [Anonymous Symbol]                       0x0800c0bc   Section        0  lto-llvm-af9222.o(.text.__cxx_global_var_init.2)
    __cxx_global_var_init.274                0x0800c0f1   Thumb Code    52  lto-llvm-af9222.o(.text.__cxx_global_var_init.274)
    [Anonymous Symbol]                       0x0800c0f0   Section        0  lto-llvm-af9222.o(.text.__cxx_global_var_init.274)
    __cxx_global_var_init.3                  0x0800c125   Thumb Code    52  lto-llvm-af9222.o(.text.__cxx_global_var_init.3)
    [Anonymous Symbol]                       0x0800c124   Section        0  lto-llvm-af9222.o(.text.__cxx_global_var_init.3)
    [Anonymous Symbol]                       0x0800c158   Section        0  abort_message.cpp.o(.text.abort_message)
    [Anonymous Symbol]                       0x0800c15c   Section        0  lto-llvm-af9222.o(.text.main)
    i.__hardfp_log                           0x0800c210   Section        0  log.o(i.__hardfp_log)
    i.__hardfp_log2                          0x0800c5d8   Section        0  log2.o(i.__hardfp_log2)
    i.__kernel_poly                          0x0800c6d8   Section        0  poly.o(i.__kernel_poly)
    i.__mathlib_dbl_divzero                  0x0800c7d0   Section        0  dunder.o(i.__mathlib_dbl_divzero)
    i.__mathlib_dbl_infnan                   0x0800c800   Section        0  dunder.o(i.__mathlib_dbl_infnan)
    i.__mathlib_dbl_invalid                  0x0800c818   Section        0  dunder.o(i.__mathlib_dbl_invalid)
    i.__scatterload_copy                     0x0800c838   Section       14  handlers.o(i.__scatterload_copy)
    i.__scatterload_null                     0x0800c846   Section        2  handlers.o(i.__scatterload_null)
    i.__scatterload_zeroinit                 0x0800c848   Section       14  handlers.o(i.__scatterload_zeroinit)
    i.__set_errno                            0x0800c858   Section        0  errno.o(i.__set_errno)
    i.free                                   0x0800c864   Section        0  malloc.o(i.free)
    i.frexp                                  0x0800c8b8   Section        0  frexp.o(i.frexp)
    i.log                                    0x0800c944   Section        0  log.o(i.log)
    i.malloc                                 0x0800c954   Section        0  malloc.o(i.malloc)
    Lg2                                      0x0800c9c0   Data          24  log.o(.constdata)
    .constdata                               0x0800c9c0   Section       56  log.o(.constdata)
    Lg                                       0x0800c9d8   Data          32  log.o(.constdata)
    .constdata                               0x0800c9f8   Section        8  qnan.o(.constdata)
    servoInfo                                0x0800ca00   Data          56  lto-llvm-af9222.o(.rodata._ZL9servoInfo)
    [Anonymous Symbol]                       0x0800ca00   Section        0  lto-llvm-af9222.o(.rodata._ZL9servoInfo)
    vtable for Motor                         0x0800ca38   Data          16  lto-llvm-af9222.o(.rodata._ZTV5Motor)
    vtable for Servo                         0x0800ca48   Data          16  lto-llvm-af9222.o(.rodata._ZTV5Servo)
    vtable for Device                        0x0800ca58   Data          16  lto-llvm-af9222.o(.rodata._ZTV6Device)
    AHBPrescTable                            0x0800ca68   Data          16  lto-llvm-af9222.o(.rodata.cst16)
    [Anonymous Symbol]                       0x0800ca68   Section        0  lto-llvm-af9222.o(.rodata.cst16)
    DMA_CalcBaseAndBitshift.flagBitshiftOffset 0x0800ca78   Data           8  lto-llvm-af9222.o(.rodata.cst8)
    [Anonymous Symbol]                       0x0800ca78   Section        0  lto-llvm-af9222.o(.rodata.cst8)
    APBPrescTable                            0x0800ca80   Data           8  lto-llvm-af9222.o(.rodata.cst8)
    .L.str.3                                 0x0800ca88   Data          14  lto-llvm-af9222.o(.rodata.str1.1)
    [Anonymous Symbol]                       0x0800ca88   Section        0  lto-llvm-af9222.o(.rodata.str1.1)
    .L.str.2                                 0x0800ca96   Data          11  lto-llvm-af9222.o(.rodata.str1.1)
    .L.str.1                                 0x0800caa1   Data          19  lto-llvm-af9222.o(.rodata.str1.1)
    .L.str                                   0x0800cab4   Data          22  lto-llvm-af9222.o(.rodata.str1.1)
    .init_array                              0x0800caf4   Section        0  cpp_init.o(.init_array)
    .data                                    0x20000000   Section        4  mvars.o(.data)
    .data                                    0x20000004   Section        4  mvars.o(.data)
    _errno                                   0x20000008   Data           4  errno.o(.data)
    .data                                    0x20000008   Section        4  errno.o(.data)
    ddtor_pointer                            0x2000000c   Data           4  cpp_dtor.o(.data)
    .data                                    0x2000000c   Section        4  cpp_dtor.o(.data)
    Claw_Servo_Init                          0x20000010   Data          20  lto-llvm-af9222.o(.data.Claw_Servo_Init)
    [Anonymous Symbol]                       0x20000010   Section        0  lto-llvm-af9222.o(.data.Claw_Servo_Init)
    FS_Desc                                  0x20000024   Data          28  lto-llvm-af9222.o(.data.FS_Desc)
    [Anonymous Symbol]                       0x20000024   Section        0  lto-llvm-af9222.o(.data.FS_Desc)
    SystemCoreClock                          0x20000040   Data           4  lto-llvm-af9222.o(.data.SystemCoreClock)
    [Anonymous Symbol]                       0x20000040   Section        0  lto-llvm-af9222.o(.data.SystemCoreClock)
    USBD_CDC                                 0x20000044   Data          56  lto-llvm-af9222.o(.data.USBD_CDC)
    [Anonymous Symbol]                       0x20000044   Section        0  lto-llvm-af9222.o(.data.USBD_CDC)
    USBD_CDC_CfgFSDesc                       0x2000007c   Data          67  lto-llvm-af9222.o(.data.USBD_CDC_CfgFSDesc)
    [Anonymous Symbol]                       0x2000007c   Section        0  lto-llvm-af9222.o(.data.USBD_CDC_CfgFSDesc)
    USBD_CDC_CfgHSDesc                       0x200000c0   Data          67  lto-llvm-af9222.o(.data.USBD_CDC_CfgHSDesc)
    [Anonymous Symbol]                       0x200000c0   Section        0  lto-llvm-af9222.o(.data.USBD_CDC_CfgHSDesc)
    USBD_CDC_DeviceQualifierDesc             0x20000104   Data          10  lto-llvm-af9222.o(.data.USBD_CDC_DeviceQualifierDesc)
    [Anonymous Symbol]                       0x20000104   Section        0  lto-llvm-af9222.o(.data.USBD_CDC_DeviceQualifierDesc)
    USBD_CDC_OtherSpeedCfgDesc               0x20000110   Data          67  lto-llvm-af9222.o(.data.USBD_CDC_OtherSpeedCfgDesc)
    [Anonymous Symbol]                       0x20000110   Section        0  lto-llvm-af9222.o(.data.USBD_CDC_OtherSpeedCfgDesc)
    USBD_FS_DeviceDesc                       0x20000154   Data          18  lto-llvm-af9222.o(.data.USBD_FS_DeviceDesc)
    [Anonymous Symbol]                       0x20000154   Section        0  lto-llvm-af9222.o(.data.USBD_FS_DeviceDesc)
    USBD_Interface_fops_FS                   0x20000168   Data          16  lto-llvm-af9222.o(.data.USBD_Interface_fops_FS)
    [Anonymous Symbol]                       0x20000168   Section        0  lto-llvm-af9222.o(.data.USBD_Interface_fops_FS)
    USBD_LangIDDesc                          0x20000178   Data           4  lto-llvm-af9222.o(.data.USBD_LangIDDesc)
    [Anonymous Symbol]                       0x20000178   Section        0  lto-llvm-af9222.o(.data.USBD_LangIDDesc)
    USBD_StringSerial                        0x2000017c   Data          26  lto-llvm-af9222.o(.data.USBD_StringSerial)
    [Anonymous Symbol]                       0x2000017c   Section        0  lto-llvm-af9222.o(.data.USBD_StringSerial)
    aRGB_led_change(unsigned int)::aRGB_value 0x20000198   Data           4  lto-llvm-af9222.o(.data._ZZ15aRGB_led_changejE10aRGB_value)
    [Anonymous Symbol]                       0x20000198   Section        0  lto-llvm-af9222.o(.data._ZZ15aRGB_led_changejE10aRGB_value)
    chassisMotorInit                         0x2000019c   Data          20  lto-llvm-af9222.o(.data.chassisMotorInit)
    [Anonymous Symbol]                       0x2000019c   Section        0  lto-llvm-af9222.o(.data.chassisMotorInit)
    key_raw_state                            0x200001b0   Data           1  lto-llvm-af9222.o(.data.key_raw_state)
    [Anonymous Symbol]                       0x200001b0   Section        0  lto-llvm-af9222.o(.data.key_raw_state)
    pidRegulator                             0x200001b4   Data          72  lto-llvm-af9222.o(.data.pidRegulator)
    [Anonymous Symbol]                       0x200001b4   Section        0  lto-llvm-af9222.o(.data.pidRegulator)
    userMotorInit                            0x200001fc   Data          20  lto-llvm-af9222.o(.data.userMotorInit)
    [Anonymous Symbol]                       0x200001fc   Section        0  lto-llvm-af9222.o(.data.userMotorInit)
    userPidRegulator                         0x20000210   Data          72  lto-llvm-af9222.o(.data.userPidRegulator)
    [Anonymous Symbol]                       0x20000210   Section        0  lto-llvm-af9222.o(.data.userPidRegulator)
    uwTickPrio                               0x20000258   Data           4  lto-llvm-af9222.o(.data.uwTickPrio)
    [Anonymous Symbol]                       0x20000258   Section        0  lto-llvm-af9222.o(.data.uwTickPrio)
    CMBL                                     0x20000260   Data         200  lto-llvm-af9222.o(.bss.CMBL)
    [Anonymous Symbol]                       0x20000260   Section        0  lto-llvm-af9222.o(.bss.CMBL)
    CMBR                                     0x20000328   Data         200  lto-llvm-af9222.o(.bss.CMBR)
    [Anonymous Symbol]                       0x20000328   Section        0  lto-llvm-af9222.o(.bss.CMBR)
    CMFL                                     0x200003f0   Data         200  lto-llvm-af9222.o(.bss.CMFL)
    [Anonymous Symbol]                       0x200003f0   Section        0  lto-llvm-af9222.o(.bss.CMFL)
    CMFR                                     0x200004b8   Data         200  lto-llvm-af9222.o(.bss.CMFR)
    [Anonymous Symbol]                       0x200004b8   Section        0  lto-llvm-af9222.o(.bss.CMFR)
    ClawServo                                0x20000580   Data          36  lto-llvm-af9222.o(.bss.ClawServo)
    [Anonymous Symbol]                       0x20000580   Section        0  lto-llvm-af9222.o(.bss.ClawServo)
    HAL_RCC_CAN1_CLK_ENABLED                 0x200005a4   Data           4  lto-llvm-af9222.o(.bss.HAL_RCC_CAN1_CLK_ENABLED)
    [Anonymous Symbol]                       0x200005a4   Section        0  lto-llvm-af9222.o(.bss.HAL_RCC_CAN1_CLK_ENABLED)
    USBD_SetConfig.cfgidx                    0x200005a8   Data           1  lto-llvm-af9222.o(.bss.USBD_SetConfig.cfgidx)
    [Anonymous Symbol]                       0x200005a8   Section        0  lto-llvm-af9222.o(.bss.USBD_SetConfig.cfgidx)
    USBD_StrDesc                             0x200005ac   Data         512  lto-llvm-af9222.o(.bss.USBD_StrDesc)
    [Anonymous Symbol]                       0x200005ac   Section        0  lto-llvm-af9222.o(.bss.USBD_StrDesc)
    UserMotor                                0x200007ac   Data         200  lto-llvm-af9222.o(.bss.UserMotor)
    [Anonymous Symbol]                       0x200007ac   Section        0  lto-llvm-af9222.o(.bss.UserMotor)
    UserRxBufferFS                           0x20000874   Data        2048  lto-llvm-af9222.o(.bss.UserRxBufferFS)
    [Anonymous Symbol]                       0x20000874   Section        0  lto-llvm-af9222.o(.bss.UserRxBufferFS)
    UserTxBufferFS                           0x20001074   Data        2048  lto-llvm-af9222.o(.bss.UserTxBufferFS)
    [Anonymous Symbol]                       0x20001074   Section        0  lto-llvm-af9222.o(.bss.UserTxBufferFS)
    RemoteControl::sbus_rx_buf               0x20001874   Data          72  lto-llvm-af9222.o(.bss._ZN13RemoteControl11sbus_rx_bufE)
    [Anonymous Symbol]                       0x20001874   Section        0  lto-llvm-af9222.o(.bss._ZN13RemoteControl11sbus_rx_bufE)
    RemoteControl::rcInfo (.0)               0x200018bc   Data           4  lto-llvm-af9222.o(.bss._ZN13RemoteControl6rcInfoE.0)
    [Anonymous Symbol]                       0x200018bc   Section        0  lto-llvm-af9222.o(.bss._ZN13RemoteControl6rcInfoE.0)
    RemoteControl::rcInfo (.4)               0x200018c0   Data           1  lto-llvm-af9222.o(.bss._ZN13RemoteControl6rcInfoE.4)
    [Anonymous Symbol]                       0x200018c0   Section        0  lto-llvm-af9222.o(.bss._ZN13RemoteControl6rcInfoE.4)
    RemoteControl::rcInfo (.5)               0x200018c4   Data           1  lto-llvm-af9222.o(.bss._ZN13RemoteControl6rcInfoE.5)
    [Anonymous Symbol]                       0x200018c4   Section        0  lto-llvm-af9222.o(.bss._ZN13RemoteControl6rcInfoE.5)
    RemoteControl::rc_ctrl (.0)              0x200018c8   Data           4  lto-llvm-af9222.o(.bss._ZN13RemoteControl7rc_ctrlE.0)
    [Anonymous Symbol]                       0x200018c8   Section        0  lto-llvm-af9222.o(.bss._ZN13RemoteControl7rc_ctrlE.0)
    RemoteControl::rc_ctrl (.1)              0x200018cc   Data           4  lto-llvm-af9222.o(.bss._ZN13RemoteControl7rc_ctrlE.1)
    [Anonymous Symbol]                       0x200018cc   Section        0  lto-llvm-af9222.o(.bss._ZN13RemoteControl7rc_ctrlE.1)
    RemoteControl::rc_ctrl (.2)              0x200018d0   Data           4  lto-llvm-af9222.o(.bss._ZN13RemoteControl7rc_ctrlE.2)
    [Anonymous Symbol]                       0x200018d0   Section        0  lto-llvm-af9222.o(.bss._ZN13RemoteControl7rc_ctrlE.2)
    RemoteControl::rc_ctrl (.3)              0x200018d4   Data           4  lto-llvm-af9222.o(.bss._ZN13RemoteControl7rc_ctrlE.3)
    [Anonymous Symbol]                       0x200018d4   Section        0  lto-llvm-af9222.o(.bss._ZN13RemoteControl7rc_ctrlE.3)
    RemoteControl::rc_ctrl (.4)              0x200018d8   Data           4  lto-llvm-af9222.o(.bss._ZN13RemoteControl7rc_ctrlE.4)
    [Anonymous Symbol]                       0x200018d8   Section        0  lto-llvm-af9222.o(.bss._ZN13RemoteControl7rc_ctrlE.4)
    RemoteControl::rc_ctrl (.5)              0x200018dc   Data           4  lto-llvm-af9222.o(.bss._ZN13RemoteControl7rc_ctrlE.5)
    [Anonymous Symbol]                       0x200018dc   Section        0  lto-llvm-af9222.o(.bss._ZN13RemoteControl7rc_ctrlE.5)
    Motor::motor_intensity                   0x200018e0   Data          32  lto-llvm-af9222.o(.bss._ZN5Motor15motor_intensityE)
    [Anonymous Symbol]                       0x200018e0   Section        0  lto-llvm-af9222.o(.bss._ZN5Motor15motor_intensityE)
    Motor::motorPtrs                         0x20001900   Data          64  lto-llvm-af9222.o(.bss._ZN5Motor9motorPtrsE)
    [Anonymous Symbol]                       0x20001900   Section        0  lto-llvm-af9222.o(.bss._ZN5Motor9motorPtrsE)
    Motor::motor_IDs                         0x20001940   Data           4  lto-llvm-af9222.o(.bss._ZN5Motor9motor_IDsE)
    [Anonymous Symbol]                       0x20001940   Section        0  lto-llvm-af9222.o(.bss._ZN5Motor9motor_IDsE)
    Servo::servo_IDs                         0x20001944   Data           4  lto-llvm-af9222.o(.bss._ZN5Servo9servo_IDsE)
    [Anonymous Symbol]                       0x20001944   Section        0  lto-llvm-af9222.o(.bss._ZN5Servo9servo_IDsE)
    aRGB_led_show(unsigned int)::red         0x20001948   Data           2  lto-llvm-af9222.o(.bss._ZZ13aRGB_led_showjE3red)
    [Anonymous Symbol]                       0x20001948   Section        0  lto-llvm-af9222.o(.bss._ZZ13aRGB_led_showjE3red)
    aRGB_led_show(unsigned int)::blue        0x2000194a   Data           2  lto-llvm-af9222.o(.bss._ZZ13aRGB_led_showjE4blue)
    [Anonymous Symbol]                       0x2000194a   Section        0  lto-llvm-af9222.o(.bss._ZZ13aRGB_led_showjE4blue)
    aRGB_led_show(unsigned int)::alpha       0x2000194c   Data           1  lto-llvm-af9222.o(.bss._ZZ13aRGB_led_showjE5alpha)
    [Anonymous Symbol]                       0x2000194c   Section        0  lto-llvm-af9222.o(.bss._ZZ13aRGB_led_showjE5alpha)
    aRGB_led_show(unsigned int)::green       0x2000194e   Data           2  lto-llvm-af9222.o(.bss._ZZ13aRGB_led_showjE5green)
    [Anonymous Symbol]                       0x2000194e   Section        0  lto-llvm-af9222.o(.bss._ZZ13aRGB_led_showjE5green)
    aRGB_led_change(unsigned int)::lastTick  0x20001950   Data           4  lto-llvm-af9222.o(.bss._ZZ15aRGB_led_changejE8lastTick)
    [Anonymous Symbol]                       0x20001950   Section        0  lto-llvm-af9222.o(.bss._ZZ15aRGB_led_changejE8lastTick)
    aRGB_led_change(unsigned int)::lastPhase 0x20001954   Data           4  lto-llvm-af9222.o(.bss._ZZ15aRGB_led_changejE9lastPhase)
    [Anonymous Symbol]                       0x20001954   Section        0  lto-llvm-af9222.o(.bss._ZZ15aRGB_led_changejE9lastPhase)
    bsp_ADC_vccMoni()::calibrationCnt        0x20001958   Data           4  lto-llvm-af9222.o(.bss._ZZ15bsp_ADC_vccMonivE14calibrationCnt)
    [Anonymous Symbol]                       0x20001958   Section        0  lto-llvm-af9222.o(.bss._ZZ15bsp_ADC_vccMonivE14calibrationCnt)
    bsp_ADC_vccMoni()::calibrationCplt       0x2000195c   Data           1  lto-llvm-af9222.o(.bss._ZZ15bsp_ADC_vccMonivE15calibrationCplt)
    [Anonymous Symbol]                       0x2000195c   Section        0  lto-llvm-af9222.o(.bss._ZZ15bsp_ADC_vccMonivE15calibrationCplt)
    bsp_ADC_vccMoni()::vrefSum               0x20001960   Data           4  lto-llvm-af9222.o(.bss._ZZ15bsp_ADC_vccMonivE7vrefSum)
    [Anonymous Symbol]                       0x20001960   Section        0  lto-llvm-af9222.o(.bss._ZZ15bsp_ADC_vccMonivE7vrefSum)
    bsp_ADC_vccMoni()::vrefValue             0x20001964   Data           4  lto-llvm-af9222.o(.bss._ZZ15bsp_ADC_vccMonivE9vrefValue)
    [Anonymous Symbol]                       0x20001964   Section        0  lto-llvm-af9222.o(.bss._ZZ15bsp_ADC_vccMonivE9vrefValue)
    HAL_TIM_PeriodElapsedCallback::cnt       0x20001968   Data           4  lto-llvm-af9222.o(.bss._ZZ29HAL_TIM_PeriodElapsedCallbackE3cnt)
    [Anonymous Symbol]                       0x20001968   Section        0  lto-llvm-af9222.o(.bss._ZZ29HAL_TIM_PeriodElapsedCallbackE3cnt)
    RemoteControl::ITHandle()::this_time_rx_len 0x2000196c   Data           2  lto-llvm-af9222.o(.bss._ZZN13RemoteControl8ITHandleEvE16this_time_rx_len)
    [Anonymous Symbol]                       0x2000196c   Section        0  lto-llvm-af9222.o(.bss._ZZN13RemoteControl8ITHandleEvE16this_time_rx_len)
    Motor::MotorStateUpdate()::lastRead      0x20001970   Data           4  lto-llvm-af9222.o(.bss._ZZN5Motor16MotorStateUpdateEvE8lastRead)
    [Anonymous Symbol]                       0x20001970   Section        0  lto-llvm-af9222.o(.bss._ZZN5Motor16MotorStateUpdateEvE8lastRead)
    flashData                                0x20001974   Data         512  lto-llvm-af9222.o(.bss.flashData)
    [Anonymous Symbol]                       0x20001974   Section        0  lto-llvm-af9222.o(.bss.flashData)
    hUsbDeviceFS                             0x20001b74   Data         668  lto-llvm-af9222.o(.bss.hUsbDeviceFS)
    [Anonymous Symbol]                       0x20001b74   Section        0  lto-llvm-af9222.o(.bss.hUsbDeviceFS)
    hadc1                                    0x20001e10   Data          72  lto-llvm-af9222.o(.bss.hadc1)
    [Anonymous Symbol]                       0x20001e10   Section        0  lto-llvm-af9222.o(.bss.hadc1)
    hadc3                                    0x20001e58   Data          72  lto-llvm-af9222.o(.bss.hadc3)
    [Anonymous Symbol]                       0x20001e58   Section        0  lto-llvm-af9222.o(.bss.hadc3)
    hcan1                                    0x20001ea0   Data          40  lto-llvm-af9222.o(.bss.hcan1)
    [Anonymous Symbol]                       0x20001ea0   Section        0  lto-llvm-af9222.o(.bss.hcan1)
    hcan2                                    0x20001ec8   Data          40  lto-llvm-af9222.o(.bss.hcan2)
    [Anonymous Symbol]                       0x20001ec8   Section        0  lto-llvm-af9222.o(.bss.hcan2)
    hdma_usart1_rx                           0x20001ef0   Data          96  lto-llvm-af9222.o(.bss.hdma_usart1_rx)
    [Anonymous Symbol]                       0x20001ef0   Section        0  lto-llvm-af9222.o(.bss.hdma_usart1_rx)
    hdma_usart1_tx                           0x20001f50   Data          96  lto-llvm-af9222.o(.bss.hdma_usart1_tx)
    [Anonymous Symbol]                       0x20001f50   Section        0  lto-llvm-af9222.o(.bss.hdma_usart1_tx)
    hdma_usart3_rx                           0x20001fb0   Data          96  lto-llvm-af9222.o(.bss.hdma_usart3_rx)
    [Anonymous Symbol]                       0x20001fb0   Section        0  lto-llvm-af9222.o(.bss.hdma_usart3_rx)
    hi2c3                                    0x20002010   Data          84  lto-llvm-af9222.o(.bss.hi2c3)
    [Anonymous Symbol]                       0x20002010   Section        0  lto-llvm-af9222.o(.bss.hi2c3)
    hiwdg                                    0x20002064   Data          12  lto-llvm-af9222.o(.bss.hiwdg)
    [Anonymous Symbol]                       0x20002064   Section        0  lto-llvm-af9222.o(.bss.hiwdg)
    hpcd_USB_OTG_FS                          0x20002070   Data        1032  lto-llvm-af9222.o(.bss.hpcd_USB_OTG_FS)
    [Anonymous Symbol]                       0x20002070   Section        0  lto-llvm-af9222.o(.bss.hpcd_USB_OTG_FS)
    hspi1                                    0x20002478   Data          88  lto-llvm-af9222.o(.bss.hspi1)
    [Anonymous Symbol]                       0x20002478   Section        0  lto-llvm-af9222.o(.bss.hspi1)
    hspi2                                    0x200024d0   Data          88  lto-llvm-af9222.o(.bss.hspi2)
    [Anonymous Symbol]                       0x200024d0   Section        0  lto-llvm-af9222.o(.bss.hspi2)
    htim1                                    0x20002528   Data          64  lto-llvm-af9222.o(.bss.htim1)
    [Anonymous Symbol]                       0x20002528   Section        0  lto-llvm-af9222.o(.bss.htim1)
    htim10                                   0x20002568   Data          64  lto-llvm-af9222.o(.bss.htim10)
    [Anonymous Symbol]                       0x20002568   Section        0  lto-llvm-af9222.o(.bss.htim10)
    htim4                                    0x200025a8   Data          64  lto-llvm-af9222.o(.bss.htim4)
    [Anonymous Symbol]                       0x200025a8   Section        0  lto-llvm-af9222.o(.bss.htim4)
    htim5                                    0x200025e8   Data          64  lto-llvm-af9222.o(.bss.htim5)
    [Anonymous Symbol]                       0x200025e8   Section        0  lto-llvm-af9222.o(.bss.htim5)
    htim8                                    0x20002628   Data          64  lto-llvm-af9222.o(.bss.htim8)
    [Anonymous Symbol]                       0x20002628   Section        0  lto-llvm-af9222.o(.bss.htim8)
    huart1                                   0x20002668   Data          64  lto-llvm-af9222.o(.bss.huart1)
    [Anonymous Symbol]                       0x20002668   Section        0  lto-llvm-af9222.o(.bss.huart1)
    huart3                                   0x200026a8   Data          64  lto-llvm-af9222.o(.bss.huart3)
    [Anonymous Symbol]                       0x200026a8   Section        0  lto-llvm-af9222.o(.bss.huart3)
    huart6                                   0x200026e8   Data          64  lto-llvm-af9222.o(.bss.huart6)
    [Anonymous Symbol]                       0x200026e8   Section        0  lto-llvm-af9222.o(.bss.huart6)
    init_Flag                                0x20002728   Data           1  lto-llvm-af9222.o(.bss.init_Flag)
    [Anonymous Symbol]                       0x20002728   Section        0  lto-llvm-af9222.o(.bss.init_Flag)
    key_last_stamp                           0x2000272c   Data           4  lto-llvm-af9222.o(.bss.key_last_stamp)
    [Anonymous Symbol]                       0x2000272c   Section        0  lto-llvm-af9222.o(.bss.key_last_stamp)
    period                                   0x20002730   Data           1  lto-llvm-af9222.o(.bss.period)
    [Anonymous Symbol]                       0x20002730   Section        0  lto-llvm-af9222.o(.bss.period)
    uwTick                                   0x20002734   Data           4  lto-llvm-af9222.o(.bss.uwTick)
    [Anonymous Symbol]                       0x20002734   Section        0  lto-llvm-af9222.o(.bss.uwTick)
    vccBat                                   0x20002738   Data           4  lto-llvm-af9222.o(.bss.vccBat)
    [Anonymous Symbol]                       0x20002738   Section        0  lto-llvm-af9222.o(.bss.vccBat)
    vccMoni                                  0x2000273c   Data           4  lto-llvm-af9222.o(.bss.vccMoni)
    [Anonymous Symbol]                       0x2000273c   Section        0  lto-llvm-af9222.o(.bss.vccMoni)
    HEAP                                     0x20002740   Section     4096  startup_stm32f407xx.o(HEAP)
    STACK                                    0x20003740   Section     2048  startup_stm32f407xx.o(STACK)

    Global Symbols

    Symbol Name                              Value     Ov Type        Size  Object(Section)

    BuildAttributes$$THM_ISAv4$E$P$D$K$B$S$7EM$VFPi3$EXTD16$VFPS$VFMA$PE$A:L22UL41UL21$X:L11$S22US41US21$IEEE1$IW$~IW$USESV6$~STKCKD$USESV7$~SHL$OTIME$ROPI$IEEEX$EBA8$MICROLIB$REQ8$PRES8$EABIv2 0x00000000   Number         0  anon$$obj.o ABSOLUTE
    _clock_init                               - Undefined Weak Reference
    _microlib_exit                            - Undefined Weak Reference
    __Vectors_Size                           0x00000188   Number         0  startup_stm32f407xx.o ABSOLUTE
    __Vectors                                0x08000000   Data           4  startup_stm32f407xx.o(RESET)
    __dso_handle                             0x08000000   Number         0  startup_stm32f407xx.o(RESET)
    __Vectors_End                            0x08000188   Data           0  startup_stm32f407xx.o(RESET)
    __main                                   0x08000189   Thumb Code     0  entry.o(.ARM.Collect$$$$00000000)
    _main_stk                                0x08000189   Thumb Code     0  entry2.o(.ARM.Collect$$$$00000001)
    _main_scatterload                        0x0800018d   Thumb Code     0  entry5.o(.ARM.Collect$$$$00000004)
    __main_after_scatterload                 0x08000191   Thumb Code     0  entry5.o(.ARM.Collect$$$$00000004)
    _main_clock                              0x08000191   Thumb Code     0  entry7b.o(.ARM.Collect$$$$00000008)
    _main_cpp_init$empty                     0x08000191   Thumb Code     0  entry8a.o(.ARM.Collect$$$$00000009)
    _main_cpp_init                           0x08000195   Thumb Code     0  entry8b.o(.ARM.Collect$$$$0000000A)
    _main_init                               0x08000195   Thumb Code     0  entry9a.o(.ARM.Collect$$$$0000000B)
    __rt_final_cpp                           0x0800019d   Thumb Code     0  entry10a.o(.ARM.Collect$$$$0000000D)
    __rt_final_cpp$nonempty                  0x0800019d   Thumb Code     0  entry10b.o(.ARM.Collect$$$$0000000E)
    __rt_final_exit                          0x080001a1   Thumb Code     0  entry11a.o(.ARM.Collect$$$$0000000F)
    Reset_Handler                            0x080001a5   Thumb Code     8  startup_stm32f407xx.o(.text)
    ADC_IRQHandler                           0x080001bf   Thumb Code     0  startup_stm32f407xx.o(.text)
    CAN1_RX1_IRQHandler                      0x080001bf   Thumb Code     0  startup_stm32f407xx.o(.text)
    CAN1_SCE_IRQHandler                      0x080001bf   Thumb Code     0  startup_stm32f407xx.o(.text)
    CAN1_TX_IRQHandler                       0x080001bf   Thumb Code     0  startup_stm32f407xx.o(.text)
    CAN2_RX1_IRQHandler                      0x080001bf   Thumb Code     0  startup_stm32f407xx.o(.text)
    CAN2_SCE_IRQHandler                      0x080001bf   Thumb Code     0  startup_stm32f407xx.o(.text)
    CAN2_TX_IRQHandler                       0x080001bf   Thumb Code     0  startup_stm32f407xx.o(.text)
    DCMI_IRQHandler                          0x080001bf   Thumb Code     0  startup_stm32f407xx.o(.text)
    DMA1_Stream0_IRQHandler                  0x080001bf   Thumb Code     0  startup_stm32f407xx.o(.text)
    DMA1_Stream2_IRQHandler                  0x080001bf   Thumb Code     0  startup_stm32f407xx.o(.text)
    DMA1_Stream3_IRQHandler                  0x080001bf   Thumb Code     0  startup_stm32f407xx.o(.text)
    DMA1_Stream4_IRQHandler                  0x080001bf   Thumb Code     0  startup_stm32f407xx.o(.text)
    DMA1_Stream5_IRQHandler                  0x080001bf   Thumb Code     0  startup_stm32f407xx.o(.text)
    DMA1_Stream6_IRQHandler                  0x080001bf   Thumb Code     0  startup_stm32f407xx.o(.text)
    DMA1_Stream7_IRQHandler                  0x080001bf   Thumb Code     0  startup_stm32f407xx.o(.text)
    DMA2_Stream0_IRQHandler                  0x080001bf   Thumb Code     0  startup_stm32f407xx.o(.text)
    DMA2_Stream1_IRQHandler                  0x080001bf   Thumb Code     0  startup_stm32f407xx.o(.text)
    DMA2_Stream3_IRQHandler                  0x080001bf   Thumb Code     0  startup_stm32f407xx.o(.text)
    DMA2_Stream4_IRQHandler                  0x080001bf   Thumb Code     0  startup_stm32f407xx.o(.text)
    DMA2_Stream5_IRQHandler                  0x080001bf   Thumb Code     0  startup_stm32f407xx.o(.text)
    DMA2_Stream6_IRQHandler                  0x080001bf   Thumb Code     0  startup_stm32f407xx.o(.text)
    ETH_IRQHandler                           0x080001bf   Thumb Code     0  startup_stm32f407xx.o(.text)
    ETH_WKUP_IRQHandler                      0x080001bf   Thumb Code     0  startup_stm32f407xx.o(.text)
    EXTI15_10_IRQHandler                     0x080001bf   Thumb Code     0  startup_stm32f407xx.o(.text)
    EXTI1_IRQHandler                         0x080001bf   Thumb Code     0  startup_stm32f407xx.o(.text)
    EXTI2_IRQHandler                         0x080001bf   Thumb Code     0  startup_stm32f407xx.o(.text)
    EXTI4_IRQHandler                         0x080001bf   Thumb Code     0  startup_stm32f407xx.o(.text)
    EXTI9_5_IRQHandler                       0x080001bf   Thumb Code     0  startup_stm32f407xx.o(.text)
    FLASH_IRQHandler                         0x080001bf   Thumb Code     0  startup_stm32f407xx.o(.text)
    FMC_IRQHandler                           0x080001bf   Thumb Code     0  startup_stm32f407xx.o(.text)
    FPU_IRQHandler                           0x080001bf   Thumb Code     0  startup_stm32f407xx.o(.text)
    HASH_RNG_IRQHandler                      0x080001bf   Thumb Code     0  startup_stm32f407xx.o(.text)
    I2C1_ER_IRQHandler                       0x080001bf   Thumb Code     0  startup_stm32f407xx.o(.text)
    I2C1_EV_IRQHandler                       0x080001bf   Thumb Code     0  startup_stm32f407xx.o(.text)
    I2C2_ER_IRQHandler                       0x080001bf   Thumb Code     0  startup_stm32f407xx.o(.text)
    I2C2_EV_IRQHandler                       0x080001bf   Thumb Code     0  startup_stm32f407xx.o(.text)
    I2C3_ER_IRQHandler                       0x080001bf   Thumb Code     0  startup_stm32f407xx.o(.text)
    I2C3_EV_IRQHandler                       0x080001bf   Thumb Code     0  startup_stm32f407xx.o(.text)
    OTG_FS_WKUP_IRQHandler                   0x080001bf   Thumb Code     0  startup_stm32f407xx.o(.text)
    OTG_HS_EP1_IN_IRQHandler                 0x080001bf   Thumb Code     0  startup_stm32f407xx.o(.text)
    OTG_HS_EP1_OUT_IRQHandler                0x080001bf   Thumb Code     0  startup_stm32f407xx.o(.text)
    OTG_HS_IRQHandler                        0x080001bf   Thumb Code     0  startup_stm32f407xx.o(.text)
    OTG_HS_WKUP_IRQHandler                   0x080001bf   Thumb Code     0  startup_stm32f407xx.o(.text)
    PVD_IRQHandler                           0x080001bf   Thumb Code     0  startup_stm32f407xx.o(.text)
    RCC_IRQHandler                           0x080001bf   Thumb Code     0  startup_stm32f407xx.o(.text)
    RTC_Alarm_IRQHandler                     0x080001bf   Thumb Code     0  startup_stm32f407xx.o(.text)
    RTC_WKUP_IRQHandler                      0x080001bf   Thumb Code     0  startup_stm32f407xx.o(.text)
    SDIO_IRQHandler                          0x080001bf   Thumb Code     0  startup_stm32f407xx.o(.text)
    SPI1_IRQHandler                          0x080001bf   Thumb Code     0  startup_stm32f407xx.o(.text)
    SPI2_IRQHandler                          0x080001bf   Thumb Code     0  startup_stm32f407xx.o(.text)
    SPI3_IRQHandler                          0x080001bf   Thumb Code     0  startup_stm32f407xx.o(.text)
    TAMP_STAMP_IRQHandler                    0x080001bf   Thumb Code     0  startup_stm32f407xx.o(.text)
    TIM1_BRK_TIM9_IRQHandler                 0x080001bf   Thumb Code     0  startup_stm32f407xx.o(.text)
    TIM1_CC_IRQHandler                       0x080001bf   Thumb Code     0  startup_stm32f407xx.o(.text)
    TIM1_TRG_COM_TIM11_IRQHandler            0x080001bf   Thumb Code     0  startup_stm32f407xx.o(.text)
    TIM2_IRQHandler                          0x080001bf   Thumb Code     0  startup_stm32f407xx.o(.text)
    TIM3_IRQHandler                          0x080001bf   Thumb Code     0  startup_stm32f407xx.o(.text)
    TIM4_IRQHandler                          0x080001bf   Thumb Code     0  startup_stm32f407xx.o(.text)
    TIM5_IRQHandler                          0x080001bf   Thumb Code     0  startup_stm32f407xx.o(.text)
    TIM6_DAC_IRQHandler                      0x080001bf   Thumb Code     0  startup_stm32f407xx.o(.text)
    TIM7_IRQHandler                          0x080001bf   Thumb Code     0  startup_stm32f407xx.o(.text)
    TIM8_BRK_TIM12_IRQHandler                0x080001bf   Thumb Code     0  startup_stm32f407xx.o(.text)
    TIM8_CC_IRQHandler                       0x080001bf   Thumb Code     0  startup_stm32f407xx.o(.text)
    TIM8_TRG_COM_TIM14_IRQHandler            0x080001bf   Thumb Code     0  startup_stm32f407xx.o(.text)
    TIM8_UP_TIM13_IRQHandler                 0x080001bf   Thumb Code     0  startup_stm32f407xx.o(.text)
    UART4_IRQHandler                         0x080001bf   Thumb Code     0  startup_stm32f407xx.o(.text)
    UART5_IRQHandler                         0x080001bf   Thumb Code     0  startup_stm32f407xx.o(.text)
    USART2_IRQHandler                        0x080001bf   Thumb Code     0  startup_stm32f407xx.o(.text)
    WWDG_IRQHandler                          0x080001bf   Thumb Code     0  startup_stm32f407xx.o(.text)
    __cxa_atexit                             0x080001c9   Thumb Code    10  cxa_atexit.o(.text)
    __aeabi_uldivmod                         0x080001d3   Thumb Code    98  uldiv.o(.text)
    __aeabi_memcpy                           0x08000235   Thumb Code    36  memcpya.o(.text)
    __aeabi_memcpy4                          0x08000235   Thumb Code     0  memcpya.o(.text)
    __aeabi_memcpy8                          0x08000235   Thumb Code     0  memcpya.o(.text)
    __I$use$fp                               0x08000259   Thumb Code     0  iusefp.o(.text)
    __aeabi_atexit                           0x08000259   Thumb Code    46  aeabi_atexit.o(.text)
    __aeabi_dadd                             0x08000287   Thumb Code   322  dadd.o(.text)
    __aeabi_dsub                             0x080003c9   Thumb Code     6  dadd.o(.text)
    __aeabi_drsub                            0x080003cf   Thumb Code     6  dadd.o(.text)
    __aeabi_dmul                             0x080003d5   Thumb Code   228  dmul.o(.text)
    __aeabi_ddiv                             0x080004b9   Thumb Code   222  ddiv.o(.text)
    __aeabi_i2d                              0x08000597   Thumb Code    34  dflti.o(.text)
    __aeabi_cdcmpeq                          0x080005b9   Thumb Code     0  cdcmple.o(.text)
    __aeabi_cdcmple                          0x080005b9   Thumb Code    48  cdcmple.o(.text)
    __scatterload                            0x080005e9   Thumb Code    28  init.o(.text)
    __scatterload_rt2                        0x080005e9   Thumb Code     0  init.o(.text)
    __aeabi_llsl                             0x0800060d   Thumb Code    30  llshl.o(.text)
    _ll_shift_l                              0x0800060d   Thumb Code     0  llshl.o(.text)
    __aeabi_llsr                             0x0800062b   Thumb Code    32  llushr.o(.text)
    _ll_ushift_r                             0x0800062b   Thumb Code     0  llushr.o(.text)
    __aeabi_lasr                             0x0800064b   Thumb Code    36  llsshr.o(.text)
    _ll_sshift_r                             0x0800064b   Thumb Code     0  llsshr.o(.text)
    __rt_ddtor_pointer_addr                  0x08000671   Thumb Code     4  cpp_dtor.o(.text)
    __cxa_finalize                           0x08000679   Thumb Code    66  cxa_finalize.o(.text)
    _double_round                            0x080006bb   Thumb Code    30  depilogue.o(.text)
    _double_epilogue                         0x080006d9   Thumb Code   156  depilogue.o(.text)
    __rt_lib_shutdown_cpp_2                  0x08000775   Thumb Code     2  cpp_final.o(.text)
    __aeabi_memset                           0x08000777   Thumb Code    14  memseta.o(.text)
    __aeabi_memset4                          0x08000777   Thumb Code     0  memseta.o(.text)
    __aeabi_memset8                          0x08000777   Thumb Code     0  memseta.o(.text)
    __aeabi_memclr                           0x08000785   Thumb Code     4  memseta.o(.text)
    __aeabi_memclr4                          0x08000785   Thumb Code     0  memseta.o(.text)
    __aeabi_memclr8                          0x08000785   Thumb Code     0  memseta.o(.text)
    _memset$wrapper                          0x08000789   Thumb Code    18  memseta.o(.text)
    __cpp_initialize__aeabi_                 0x0800079d   Thumb Code    24  cpp_init.o(.text)
    __aeabi_ui2d                             0x080007bd   Thumb Code    26  dfltui.o(.text)
    __aeabi_d2uiz                            0x080007d7   Thumb Code    50  dfixui.o(.text)
    __aeabi_f2d                              0x08000809   Thumb Code    38  f2d.o(.text)
    __aeabi_d2f                              0x0800082f   Thumb Code    56  d2f.o(.text)
    _float_round                             0x08000867   Thumb Code    18  fepilogue.o(.text)
    _float_epilogue                          0x08000879   Thumb Code    92  fepilogue.o(.text)
    __decompress                             0x080008d5   Thumb Code     0  __dczerorl2.o(.text)
    __decompress1                            0x080008d5   Thumb Code    86  __dczerorl2.o(.text)
    BusFault_Handler                         0x08000ab9   Thumb Code     4  lto-llvm-af9222.o(.text.BusFault_Handler)
    CAN1_RX0_IRQHandler                      0x08000abd   Thumb Code    16  lto-llvm-af9222.o(.text.CAN1_RX0_IRQHandler)
    CAN2_RX0_IRQHandler                      0x08000acd   Thumb Code    16  lto-llvm-af9222.o(.text.CAN2_RX0_IRQHandler)
    DMA1_Stream1_IRQHandler                  0x08000b69   Thumb Code    16  lto-llvm-af9222.o(.text.DMA1_Stream1_IRQHandler)
    DMA2_Stream2_IRQHandler                  0x08000b79   Thumb Code    16  lto-llvm-af9222.o(.text.DMA2_Stream2_IRQHandler)
    DMA2_Stream7_IRQHandler                  0x08000b89   Thumb Code    16  lto-llvm-af9222.o(.text.DMA2_Stream7_IRQHandler)
    DebugMon_Handler                         0x08000cd5   Thumb Code     2  lto-llvm-af9222.o(.text.DebugMon_Handler)
    EXTI0_IRQHandler                         0x08000cd9   Thumb Code    10  lto-llvm-af9222.o(.text.EXTI0_IRQHandler)
    EXTI3_IRQHandler                         0x08000ce5   Thumb Code    10  lto-llvm-af9222.o(.text.EXTI3_IRQHandler)
    HardFault_Handler                        0x08006141   Thumb Code     4  lto-llvm-af9222.o(.text.HardFault_Handler)
    MemManage_Handler                        0x08006cd9   Thumb Code     4  lto-llvm-af9222.o(.text.MemManage_Handler)
    NMI_Handler                              0x08006cdd   Thumb Code     2  lto-llvm-af9222.o(.text.NMI_Handler)
    OTG_FS_IRQHandler                        0x08006d45   Thumb Code     8  lto-llvm-af9222.o(.text.OTG_FS_IRQHandler)
    PendSV_Handler                           0x08007115   Thumb Code     2  lto-llvm-af9222.o(.text.PendSV_Handler)
    SVC_Handler                              0x08007119   Thumb Code     2  lto-llvm-af9222.o(.text.SVC_Handler)
    SysTick_Handler                          0x08007171   Thumb Code     8  lto-llvm-af9222.o(.text.SysTick_Handler)
    SystemInit                               0x08007239   Thumb Code   110  lto-llvm-af9222.o(.text.SystemInit)
    TIM1_UP_TIM10_IRQHandler                 0x080072a9   Thumb Code    28  lto-llvm-af9222.o(.text.TIM1_UP_TIM10_IRQHandler)
    USART1_IRQHandler                        0x08007cf9   Thumb Code    16  lto-llvm-af9222.o(.text.USART1_IRQHandler)
    USART3_IRQHandler                        0x08007d09   Thumb Code     8  lto-llvm-af9222.o(.text.USART3_IRQHandler)
    USART6_IRQHandler                        0x08007d11   Thumb Code    16  lto-llvm-af9222.o(.text.USART6_IRQHandler)
    UsageFault_Handler                       0x0800a9a1   Thumb Code     4  lto-llvm-af9222.o(.text.UsageFault_Handler)
    __cxa_pure_virtual                       0x0800c019   Thumb Code     8  cxa_virtual.cpp.o(.text.__cxa_pure_virtual)
    abort_message                            0x0800c159   Thumb Code     4  abort_message.cpp.o(.text.abort_message)
    main                                     0x0800c15d   Thumb Code   178  lto-llvm-af9222.o(.text.main)
    __hardfp_log                             0x0800c211   Thumb Code   872  log.o(i.__hardfp_log)
    __hardfp_log2                            0x0800c5d9   Thumb Code   220  log2.o(i.__hardfp_log2)
    __kernel_poly                            0x0800c6d9   Thumb Code   248  poly.o(i.__kernel_poly)
    __mathlib_dbl_divzero                    0x0800c7d1   Thumb Code    28  dunder.o(i.__mathlib_dbl_divzero)
    __mathlib_dbl_infnan                     0x0800c801   Thumb Code    20  dunder.o(i.__mathlib_dbl_infnan)
    __mathlib_dbl_invalid                    0x0800c819   Thumb Code    24  dunder.o(i.__mathlib_dbl_invalid)
    __scatterload_copy                       0x0800c839   Thumb Code    14  handlers.o(i.__scatterload_copy)
    __scatterload_null                       0x0800c847   Thumb Code     2  handlers.o(i.__scatterload_null)
    __scatterload_zeroinit                   0x0800c849   Thumb Code    14  handlers.o(i.__scatterload_zeroinit)
    __set_errno                              0x0800c859   Thumb Code     6  errno.o(i.__set_errno)
    free                                     0x0800c865   Thumb Code    76  malloc.o(i.free)
    frexp                                    0x0800c8b9   Thumb Code   118  frexp.o(i.frexp)
    log                                      0x0800c945   Thumb Code    16  log.o(i.log)
    malloc                                   0x0800c955   Thumb Code    92  malloc.o(i.malloc)
    __mathlib_zero                           0x0800c9f8   Data           8  qnan.o(.constdata)
    Region$$Table$$Base                      0x0800cacc   Number         0  anon$$obj.o(Region$$Table)
    Region$$Table$$Limit                     0x0800caec   Number         0  anon$$obj.o(Region$$Table)
    SHT$$INIT_ARRAY$$Base                    0x0800caec   Number         0  lto-llvm-af9222.o(.init_array)
    SHT$$INIT_ARRAY$$Limit                   0x0800caf4   Number         0  cpp_init.o(.init_array)
    __microlib_freelist                      0x20000000   Data           4  mvars.o(.data)
    __microlib_freelist_initialised          0x20000004   Data           4  mvars.o(.data)
    __heap_base                              0x20002740   Data           0  startup_stm32f407xx.o(HEAP)
    __heap_limit                             0x20003740   Data           0  startup_stm32f407xx.o(HEAP)
    __initial_sp                             0x20003f40   Data           0  startup_stm32f407xx.o(STACK)



==============================================================================

Memory Map of the image

  Image Entry point : 0x08000189

  Load Region LR_IROM1 (Base: 0x08000000, Size: 0x0000cd58, Max: 0x00100000, ABSOLUTE, COMPRESSED[0x0000cbe8])

    Execution Region ER_IROM1 (Exec base: 0x08000000, Load base: 0x08000000, Size: 0x0000caf4, Max: 0x00100000, ABSOLUTE)

    Exec Addr    Load Addr    Size         Type   Attr      Idx    E Section Name        Object

    0x08000000   0x08000000   0x00000188   Data   RO            3    RESET               startup_stm32f407xx.o
    0x08000188   0x08000188   0x00000000   Code   RO           74  * .ARM.Collect$$$$00000000  mc_w.l(entry.o)
    0x08000188   0x08000188   0x00000004   Code   RO          166    .ARM.Collect$$$$00000001  mc_w.l(entry2.o)
    0x0800018c   0x0800018c   0x00000004   Code   RO          169    .ARM.Collect$$$$00000004  mc_w.l(entry5.o)
    0x08000190   0x08000190   0x00000000   Code   RO          171    .ARM.Collect$$$$00000008  mc_w.l(entry7b.o)
    0x08000190   0x08000190   0x00000004   Code   RO          172    .ARM.Collect$$$$00000009  mc_w.l(entry8a.o)
    0x08000194   0x08000194   0x00000000   Code   RO          173    .ARM.Collect$$$$0000000A  mc_w.l(entry8b.o)
    0x08000194   0x08000194   0x00000008   Code   RO          174    .ARM.Collect$$$$0000000B  mc_w.l(entry9a.o)
    0x0800019c   0x0800019c   0x00000000   Code   RO          176    .ARM.Collect$$$$0000000D  mc_w.l(entry10a.o)
    0x0800019c   0x0800019c   0x00000004   Code   RO          177    .ARM.Collect$$$$0000000E  mc_w.l(entry10b.o)
    0x080001a0   0x080001a0   0x00000000   Code   RO          178    .ARM.Collect$$$$0000000F  mc_w.l(entry11a.o)
    0x080001a0   0x080001a0   0x00000004   Code   RO          167    .ARM.Collect$$$$00002712  mc_w.l(entry2.o)
    0x080001a4   0x080001a4   0x00000024   Code   RO            4    .text               startup_stm32f407xx.o
    0x080001c8   0x080001c8   0x0000000a   Code   RO          133    .text               mc_w.l(cxa_atexit.o)
    0x080001d2   0x080001d2   0x00000062   Code   RO          196    .text               mc_w.l(uldiv.o)
    0x08000234   0x08000234   0x00000024   Code   RO          198    .text               mc_w.l(memcpya.o)
    0x08000258   0x08000258   0x00000000   Code   RO          211    .text               mc_w.l(iusefp.o)
    0x08000258   0x08000258   0x0000002e   Code   RO          212    .text               mc_w.l(aeabi_atexit.o)
    0x08000286   0x08000286   0x0000014e   Code   RO          214    .text               mf_w.l(dadd.o)
    0x080003d4   0x080003d4   0x000000e4   Code   RO          216    .text               mf_w.l(dmul.o)
    0x080004b8   0x080004b8   0x000000de   Code   RO          218    .text               mf_w.l(ddiv.o)
    0x08000596   0x08000596   0x00000022   Code   RO          220    .text               mf_w.l(dflti.o)
    0x080005b8   0x080005b8   0x00000030   Code   RO          224    .text               mf_w.l(cdcmple.o)
    0x080005e8   0x080005e8   0x00000024   Code   RO          231    .text               mc_w.l(init.o)
    0x0800060c   0x0800060c   0x0000001e   Code   RO          234    .text               mc_w.l(llshl.o)
    0x0800062a   0x0800062a   0x00000020   Code   RO          236    .text               mc_w.l(llushr.o)
    0x0800064a   0x0800064a   0x00000024   Code   RO          238    .text               mc_w.l(llsshr.o)
    0x0800066e   0x0800066e   0x00000002   PAD
    0x08000670   0x08000670   0x00000008   Code   RO          243    .text               mc_w.l(cpp_dtor.o)
    0x08000678   0x08000678   0x00000042   Code   RO          246    .text               mc_w.l(cxa_finalize.o)
    0x080006ba   0x080006ba   0x000000ba   Code   RO          248    .text               mf_w.l(depilogue.o)
    0x08000774   0x08000774   0x00000002   Code   RO          252    .text               mc_w.l(cpp_final.o)
    0x08000776   0x08000776   0x00000024   Code   RO         1013    .text               mc_w.l(memseta.o)
    0x0800079a   0x0800079a   0x00000002   PAD
    0x0800079c   0x0800079c   0x00000020   Code   RO         1018    .text               mc_w.l(cpp_init.o)
    0x080007bc   0x080007bc   0x0000001a   Code   RO         1020    .text               mf_w.l(dfltui.o)
    0x080007d6   0x080007d6   0x00000032   Code   RO         1022    .text               mf_w.l(dfixui.o)
    0x08000808   0x08000808   0x00000026   Code   RO         1024    .text               mf_w.l(f2d.o)
    0x0800082e   0x0800082e   0x00000038   Code   RO         1026    .text               mf_w.l(d2f.o)
    0x08000866   0x08000866   0x0000006e   Code   RO         1032    .text               mf_w.l(fepilogue.o)
    0x080008d4   0x080008d4   0x00000056   Code   RO         1042    .text               mc_w.l(__dczerorl2.o)
    0x0800092a   0x0800092a   0x00000002   PAD
    0x0800092c   0x0800092c   0x0000018a   Code   RO          543    .text.ADC_Init      lto-llvm-af9222.o
    0x08000ab6   0x08000ab6   0x00000002   PAD
    0x08000ab8   0x08000ab8   0x00000004   Code   RO          281    .text.BusFault_Handler  lto-llvm-af9222.o
    0x08000abc   0x08000abc   0x00000010   Code   RO          299    .text.CAN1_RX0_IRQHandler  lto-llvm-af9222.o
    0x08000acc   0x08000acc   0x00000010   Code   RO          307    .text.CAN2_RX0_IRQHandler  lto-llvm-af9222.o
    0x08000adc   0x08000adc   0x00000056   Code   RO          357    .text.CDC_Control_FS  lto-llvm-af9222.o
    0x08000b32   0x08000b32   0x00000002   PAD
    0x08000b34   0x08000b34   0x00000004   Code   RO          355    .text.CDC_DeInit_FS  lto-llvm-af9222.o
    0x08000b38   0x08000b38   0x00000016   Code   RO          353    .text.CDC_Init_FS   lto-llvm-af9222.o
    0x08000b4e   0x08000b4e   0x00000002   PAD
    0x08000b50   0x08000b50   0x00000018   Code   RO          359    .text.CDC_Receive_FS  lto-llvm-af9222.o
    0x08000b68   0x08000b68   0x00000010   Code   RO          297    .text.DMA1_Stream1_IRQHandler  lto-llvm-af9222.o
    0x08000b78   0x08000b78   0x00000010   Code   RO          305    .text.DMA2_Stream2_IRQHandler  lto-llvm-af9222.o
    0x08000b88   0x08000b88   0x00000010   Code   RO          311    .text.DMA2_Stream7_IRQHandler  lto-llvm-af9222.o
    0x08000b98   0x08000b98   0x00000056   Code   RO          505    .text.DMA_CalcBaseAndBitshift  lto-llvm-af9222.o
    0x08000bee   0x08000bee   0x00000002   PAD
    0x08000bf0   0x08000bf0   0x000000e4   Code   RO          503    .text.DMA_CheckFifoParam  lto-llvm-af9222.o
    0x08000cd4   0x08000cd4   0x00000002   Code   RO          287    .text.DebugMon_Handler  lto-llvm-af9222.o
    0x08000cd6   0x08000cd6   0x00000002   PAD
    0x08000cd8   0x08000cd8   0x0000000a   Code   RO          293    .text.EXTI0_IRQHandler  lto-llvm-af9222.o
    0x08000ce2   0x08000ce2   0x00000002   PAD
    0x08000ce4   0x08000ce4   0x0000000a   Code   RO          295    .text.EXTI3_IRQHandler  lto-llvm-af9222.o
    0x08000cee   0x08000cee   0x00000002   PAD
    0x08000cf0   0x08000cf0   0x0000005a   Code   RO          423    .text.Get_SerialNum  lto-llvm-af9222.o
    0x08000d4a   0x08000d4a   0x00000002   PAD
    0x08000d4c   0x08000d4c   0x0000021c   Code   RO          553    .text.HAL_ADC_ConfigChannel  lto-llvm-af9222.o
    0x08000f68   0x08000f68   0x0000000e   Code   RO          551    .text.HAL_ADC_GetValue  lto-llvm-af9222.o
    0x08000f76   0x08000f76   0x00000002   PAD
    0x08000f78   0x08000f78   0x000000a8   Code   RO          541    .text.HAL_ADC_Init  lto-llvm-af9222.o
    0x08001020   0x08001020   0x000000c2   Code   RO          321    .text.HAL_ADC_MspInit  lto-llvm-af9222.o
    0x080010e2   0x080010e2   0x00000002   PAD
    0x080010e4   0x080010e4   0x00000116   Code   RO          549    .text.HAL_ADC_PollForConversion  lto-llvm-af9222.o
    0x080011fa   0x080011fa   0x00000002   PAD
    0x080011fc   0x080011fc   0x000001b6   Code   RO          545    .text.HAL_ADC_Start  lto-llvm-af9222.o
    0x080013b2   0x080013b2   0x00000002   PAD
    0x080013b4   0x080013b4   0x00000070   Code   RO          547    .text.HAL_ADC_Stop  lto-llvm-af9222.o
    0x08001424   0x08001424   0x00000050   Code   RO          587    .text.HAL_CAN_ActivateNotification  lto-llvm-af9222.o
    0x08001474   0x08001474   0x00000170   Code   RO          583    .text.HAL_CAN_AddTxMessage  lto-llvm-af9222.o
    0x080015e4   0x080015e4   0x000001aa   Code   RO          579    .text.HAL_CAN_ConfigFilter  lto-llvm-af9222.o
    0x0800178e   0x0800178e   0x00000002   PAD
    0x08001790   0x08001790   0x00000008   Code   RO          613    .text.HAL_CAN_ErrorCallback  lto-llvm-af9222.o
    0x08001798   0x08001798   0x000001ee   Code   RO          585    .text.HAL_CAN_GetRxMessage  lto-llvm-af9222.o
    0x08001986   0x08001986   0x00000002   PAD
    0x08001988   0x08001988   0x000003e2   Code   RO          589    .text.HAL_CAN_IRQHandler  lto-llvm-af9222.o
    0x08001d6a   0x08001d6a   0x00000002   PAD
    0x08001d6c   0x08001d6c   0x000001da   Code   RO          577    .text.HAL_CAN_Init  lto-llvm-af9222.o
    0x08001f46   0x08001f46   0x00000002   PAD
    0x08001f48   0x08001f48   0x00000178   Code   RO          337    .text.HAL_CAN_MspInit  lto-llvm-af9222.o
    0x080020c0   0x080020c0   0x00000008   Code   RO          603    .text.HAL_CAN_RxFifo0FullCallback  lto-llvm-af9222.o
    0x080020c8   0x080020c8   0x00000010   Code   RO          893    .text.HAL_CAN_RxFifo0MsgPendingCallback  lto-llvm-af9222.o
    0x080020d8   0x080020d8   0x00000008   Code   RO          605    .text.HAL_CAN_RxFifo1FullCallback  lto-llvm-af9222.o
    0x080020e0   0x080020e0   0x00000008   Code   RO          607    .text.HAL_CAN_RxFifo1MsgPendingCallback  lto-llvm-af9222.o
    0x080020e8   0x080020e8   0x00000008   Code   RO          609    .text.HAL_CAN_SleepCallback  lto-llvm-af9222.o
    0x080020f0   0x080020f0   0x00000086   Code   RO          581    .text.HAL_CAN_Start  lto-llvm-af9222.o
    0x08002176   0x08002176   0x00000002   PAD
    0x08002178   0x08002178   0x00000008   Code   RO          593    .text.HAL_CAN_TxMailbox0AbortCallback  lto-llvm-af9222.o
    0x08002180   0x08002180   0x00000008   Code   RO          591    .text.HAL_CAN_TxMailbox0CompleteCallback  lto-llvm-af9222.o
    0x08002188   0x08002188   0x00000008   Code   RO          597    .text.HAL_CAN_TxMailbox1AbortCallback  lto-llvm-af9222.o
    0x08002190   0x08002190   0x00000008   Code   RO          595    .text.HAL_CAN_TxMailbox1CompleteCallback  lto-llvm-af9222.o
    0x08002198   0x08002198   0x00000008   Code   RO          601    .text.HAL_CAN_TxMailbox2AbortCallback  lto-llvm-af9222.o
    0x080021a0   0x080021a0   0x00000008   Code   RO          599    .text.HAL_CAN_TxMailbox2CompleteCallback  lto-llvm-af9222.o
    0x080021a8   0x080021a8   0x00000008   Code   RO          611    .text.HAL_CAN_WakeUpFromRxMsgCallback  lto-llvm-af9222.o
    0x080021b0   0x080021b0   0x00000044   Code   RO          507    .text.HAL_DMA_Abort_IT  lto-llvm-af9222.o
    0x080021f4   0x080021f4   0x0000032c   Code   RO          509    .text.HAL_DMA_IRQHandler  lto-llvm-af9222.o
    0x08002520   0x08002520   0x0000016e   Code   RO          501    .text.HAL_DMA_Init  lto-llvm-af9222.o
    0x0800268e   0x0800268e   0x00000002   PAD
    0x08002690   0x08002690   0x00000038   Code   RO          539    .text.HAL_Delay     lto-llvm-af9222.o
    0x080026c8   0x080026c8   0x00000084   Code   RO          863    .text.HAL_GPIO_EXTI_Callback  lto-llvm-af9222.o
    0x0800274c   0x0800274c   0x00000038   Code   RO          499    .text.HAL_GPIO_EXTI_IRQHandler  lto-llvm-af9222.o
    0x08002784   0x08002784   0x00000398   Code   RO          493    .text.HAL_GPIO_Init  lto-llvm-af9222.o
    0x08002b1c   0x08002b1c   0x00000036   Code   RO          495    .text.HAL_GPIO_ReadPin  lto-llvm-af9222.o
    0x08002b52   0x08002b52   0x00000002   PAD
    0x08002b54   0x08002b54   0x00000030   Code   RO          497    .text.HAL_GPIO_WritePin  lto-llvm-af9222.o
    0x08002b84   0x08002b84   0x0000000c   Code   RO          537    .text.HAL_GetTick   lto-llvm-af9222.o
    0x08002b90   0x08002b90   0x0000027a   Code   RO          615    .text.HAL_I2C_Init  lto-llvm-af9222.o
    0x08002e0a   0x08002e0a   0x00000002   PAD
    0x08002e0c   0x08002e0c   0x000000da   Code   RO          341    .text.HAL_I2C_MspInit  lto-llvm-af9222.o
    0x08002ee6   0x08002ee6   0x00000002   PAD
    0x08002ee8   0x08002ee8   0x00000084   Code   RO          619    .text.HAL_IWDG_Init  lto-llvm-af9222.o
    0x08002f6c   0x08002f6c   0x0000001a   Code   RO          621    .text.HAL_IWDG_Refresh  lto-llvm-af9222.o
    0x08002f86   0x08002f86   0x00000002   PAD
    0x08002f88   0x08002f88   0x00000010   Code   RO          535    .text.HAL_IncTick   lto-llvm-af9222.o
    0x08002f98   0x08002f98   0x00000032   Code   RO          531    .text.HAL_Init      lto-llvm-af9222.o
    0x08002fca   0x08002fca   0x00000002   PAD
    0x08002fcc   0x08002fcc   0x00000062   Code   RO          533    .text.HAL_InitTick  lto-llvm-af9222.o
    0x0800302e   0x0800302e   0x00000002   PAD
    0x08003030   0x08003030   0x0000004a   Code   RO          315    .text.HAL_MspInit   lto-llvm-af9222.o
    0x0800307a   0x0800307a   0x00000002   PAD
    0x0800307c   0x0800307c   0x00000014   Code   RO          523    .text.HAL_NVIC_EnableIRQ  lto-llvm-af9222.o
    0x08003090   0x08003090   0x00000030   Code   RO          515    .text.HAL_NVIC_SetPriority  lto-llvm-af9222.o
    0x080030c0   0x080030c0   0x00000012   Code   RO          511    .text.HAL_NVIC_SetPriorityGrouping  lto-llvm-af9222.o
    0x080030d2   0x080030d2   0x00000002   PAD
    0x080030d4   0x080030d4   0x0000000e   Code   RO          655    .text.HAL_PCDEx_LPM_Callback  lto-llvm-af9222.o
    0x080030e2   0x080030e2   0x00000002   PAD
    0x080030e4   0x080030e4   0x00000020   Code   RO          653    .text.HAL_PCDEx_SetRxFiFo  lto-llvm-af9222.o
    0x08003104   0x08003104   0x000000a2   Code   RO          651    .text.HAL_PCDEx_SetTxFiFo  lto-llvm-af9222.o
    0x080031a6   0x080031a6   0x00000002   PAD
    0x080031a8   0x080031a8   0x00000014   Code   RO          381    .text.HAL_PCD_ConnectCallback  lto-llvm-af9222.o
    0x080031bc   0x080031bc   0x00000026   Code   RO          367    .text.HAL_PCD_DataInStageCallback  lto-llvm-af9222.o
    0x080031e2   0x080031e2   0x00000002   PAD
    0x080031e4   0x080031e4   0x00000028   Code   RO          365    .text.HAL_PCD_DataOutStageCallback  lto-llvm-af9222.o
    0x0800320c   0x0800320c   0x00000014   Code   RO          383    .text.HAL_PCD_DisconnectCallback  lto-llvm-af9222.o
    0x08003220   0x08003220   0x000000a8   Code   RO          639    .text.HAL_PCD_EP_Close  lto-llvm-af9222.o
    0x080032c8   0x080032c8   0x000000c8   Code   RO          649    .text.HAL_PCD_EP_ClrStall  lto-llvm-af9222.o
    0x08003390   0x08003390   0x00000022   Code   RO          643    .text.HAL_PCD_EP_GetRxCount  lto-llvm-af9222.o
    0x080033b2   0x080033b2   0x00000002   PAD
    0x080033b4   0x080033b4   0x000000ea   Code   RO          637    .text.HAL_PCD_EP_Open  lto-llvm-af9222.o
    0x0800349e   0x0800349e   0x00000002   PAD
    0x080034a0   0x080034a0   0x00000084   Code   RO          641    .text.HAL_PCD_EP_Receive  lto-llvm-af9222.o
    0x08003524   0x08003524   0x000000de   Code   RO          647    .text.HAL_PCD_EP_SetStall  lto-llvm-af9222.o
    0x08003602   0x08003602   0x00000002   PAD
    0x08003604   0x08003604   0x00000084   Code   RO          645    .text.HAL_PCD_EP_Transmit  lto-llvm-af9222.o
    0x08003688   0x08003688   0x00000652   Code   RO          627    .text.HAL_PCD_IRQHandler  lto-llvm-af9222.o
    0x08003cda   0x08003cda   0x00000002   PAD
    0x08003cdc   0x08003cdc   0x0000001c   Code   RO          379    .text.HAL_PCD_ISOINIncompleteCallback  lto-llvm-af9222.o
    0x08003cf8   0x08003cf8   0x0000001c   Code   RO          377    .text.HAL_PCD_ISOOUTIncompleteCallback  lto-llvm-af9222.o
    0x08003d14   0x08003d14   0x0000029a   Code   RO          623    .text.HAL_PCD_Init  lto-llvm-af9222.o
    0x08003fae   0x08003fae   0x00000002   PAD
    0x08003fb0   0x08003fb0   0x000000ac   Code   RO          361    .text.HAL_PCD_MspInit  lto-llvm-af9222.o
    0x0800405c   0x0800405c   0x00000052   Code   RO          371    .text.HAL_PCD_ResetCallback  lto-llvm-af9222.o
    0x080040ae   0x080040ae   0x00000002   PAD
    0x080040b0   0x080040b0   0x00000014   Code   RO          375    .text.HAL_PCD_ResumeCallback  lto-llvm-af9222.o
    0x080040c4   0x080040c4   0x00000014   Code   RO          369    .text.HAL_PCD_SOFCallback  lto-llvm-af9222.o
    0x080040d8   0x080040d8   0x0000005e   Code   RO          635    .text.HAL_PCD_SetAddress  lto-llvm-af9222.o
    0x08004136   0x08004136   0x00000002   PAD
    0x08004138   0x08004138   0x00000018   Code   RO          363    .text.HAL_PCD_SetupStageCallback  lto-llvm-af9222.o
    0x08004150   0x08004150   0x0000007a   Code   RO          625    .text.HAL_PCD_Start  lto-llvm-af9222.o
    0x080041ca   0x080041ca   0x00000002   PAD
    0x080041cc   0x080041cc   0x0000003e   Code   RO          373    .text.HAL_PCD_SuspendCallback  lto-llvm-af9222.o
    0x0800420a   0x0800420a   0x00000002   PAD
    0x0800420c   0x0800420c   0x00000264   Code   RO          483    .text.HAL_RCC_ClockConfig  lto-llvm-af9222.o
    0x08004470   0x08004470   0x0000000c   Code   RO          487    .text.HAL_RCC_GetHCLKFreq  lto-llvm-af9222.o
    0x0800447c   0x0800447c   0x00000022   Code   RO          489    .text.HAL_RCC_GetPCLK1Freq  lto-llvm-af9222.o
    0x0800449e   0x0800449e   0x00000002   PAD
    0x080044a0   0x080044a0   0x00000022   Code   RO          491    .text.HAL_RCC_GetPCLK2Freq  lto-llvm-af9222.o
    0x080044c2   0x080044c2   0x00000002   PAD
    0x080044c4   0x080044c4   0x000000de   Code   RO          485    .text.HAL_RCC_GetSysClockFreq  lto-llvm-af9222.o
    0x080045a2   0x080045a2   0x00000002   PAD
    0x080045a4   0x080045a4   0x000006a4   Code   RO          481    .text.HAL_RCC_OscConfig  lto-llvm-af9222.o
    0x08004c48   0x08004c48   0x000000ba   Code   RO          617    .text.HAL_SPI_Init  lto-llvm-af9222.o
    0x08004d02   0x08004d02   0x00000002   PAD
    0x08004d04   0x08004d04   0x00000198   Code   RO          347    .text.HAL_SPI_MspInit  lto-llvm-af9222.o
    0x08004e9c   0x08004e9c   0x00000010   Code   RO          527    .text.HAL_SYSTICK_Config  lto-llvm-af9222.o
    0x08004eac   0x08004eac   0x00000008   Code   RO          479    .text.HAL_TIMEx_BreakCallback  lto-llvm-af9222.o
    0x08004eb4   0x08004eb4   0x00000008   Code   RO          473    .text.HAL_TIMEx_CommutCallback  lto-llvm-af9222.o
    0x08004ebc   0x08004ebc   0x000000b2   Code   RO          477    .text.HAL_TIMEx_ConfigBreakDeadTime  lto-llvm-af9222.o
    0x08004f6e   0x08004f6e   0x00000002   PAD
    0x08004f70   0x08004f70   0x00000122   Code   RO          475    .text.HAL_TIMEx_MasterConfigSynchronization  lto-llvm-af9222.o
    0x08005092   0x08005092   0x00000002   PAD
    0x08005094   0x08005094   0x00000058   Code   RO          427    .text.HAL_TIM_Base_Init  lto-llvm-af9222.o
    0x080050ec   0x080050ec   0x0000013a   Code   RO          273    .text.HAL_TIM_Base_MspInit  lto-llvm-af9222.o
    0x08005226   0x08005226   0x00000002   PAD
    0x08005228   0x08005228   0x00000036   Code   RO          431    .text.HAL_TIM_Base_Start_IT  lto-llvm-af9222.o
    0x0800525e   0x0800525e   0x00000002   PAD
    0x08005260   0x08005260   0x00000162   Code   RO          465    .text.HAL_TIM_ConfigClockSource  lto-llvm-af9222.o
    0x080053c2   0x080053c2   0x00000002   PAD
    0x080053c4   0x080053c4   0x00000008   Code   RO          445    .text.HAL_TIM_IC_CaptureCallback  lto-llvm-af9222.o
    0x080053cc   0x080053cc   0x0000027a   Code   RO          447    .text.HAL_TIM_IRQHandler  lto-llvm-af9222.o
    0x08005646   0x08005646   0x00000002   PAD
    0x08005648   0x08005648   0x000001b2   Code   RO          263    .text.HAL_TIM_MspPostInit  lto-llvm-af9222.o
    0x080057fa   0x080057fa   0x00000002   PAD
    0x080057fc   0x080057fc   0x00000008   Code   RO          449    .text.HAL_TIM_OC_DelayElapsedCallback  lto-llvm-af9222.o
    0x08005804   0x08005804   0x00000140   Code   RO          461    .text.HAL_TIM_PWM_ConfigChannel  lto-llvm-af9222.o
    0x08005944   0x08005944   0x00000058   Code   RO          437    .text.HAL_TIM_PWM_Init  lto-llvm-af9222.o
    0x0800599c   0x0800599c   0x00000008   Code   RO          439    .text.HAL_TIM_PWM_MspInit  lto-llvm-af9222.o
    0x080059a4   0x080059a4   0x00000008   Code   RO          435    .text.HAL_TIM_PWM_PulseFinishedCallback  lto-llvm-af9222.o
    0x080059ac   0x080059ac   0x00000076   Code   RO          441    .text.HAL_TIM_PWM_Start  lto-llvm-af9222.o
    0x08005a22   0x08005a22   0x00000002   PAD
    0x08005a24   0x08005a24   0x000000b8   Code   RO          443    .text.HAL_TIM_PWM_Stop  lto-llvm-af9222.o
    0x08005adc   0x08005adc   0x000000a0   Code   RO          861    .text.HAL_TIM_PeriodElapsedCallback  lto-llvm-af9222.o
    0x08005b7c   0x08005b7c   0x00000008   Code   RO          451    .text.HAL_TIM_TriggerCallback  lto-llvm-af9222.o
    0x08005b84   0x08005b84   0x00000008   Code   RO          561    .text.HAL_UART_ErrorCallback  lto-llvm-af9222.o
    0x08005b8c   0x08005b8c   0x00000208   Code   RO          567    .text.HAL_UART_IRQHandler  lto-llvm-af9222.o
    0x08005d94   0x08005d94   0x0000009a   Code   RO          555    .text.HAL_UART_Init  lto-llvm-af9222.o
    0x08005e2e   0x08005e2e   0x00000002   PAD
    0x08005e30   0x08005e30   0x000002fe   Code   RO          329    .text.HAL_UART_MspInit  lto-llvm-af9222.o
    0x0800612e   0x0800612e   0x00000002   PAD
    0x08006130   0x08006130   0x00000008   Code   RO          565    .text.HAL_UART_RxCpltCallback  lto-llvm-af9222.o
    0x08006138   0x08006138   0x00000008   Code   RO          563    .text.HAL_UART_TxCpltCallback  lto-llvm-af9222.o
    0x08006140   0x08006140   0x00000004   Code   RO          277    .text.HardFault_Handler  lto-llvm-af9222.o
    0x08006144   0x08006144   0x0000007a   Code   RO          425    .text.IntToUnicode  lto-llvm-af9222.o
    0x080061be   0x080061be   0x00000002   PAD
    0x080061c0   0x080061c0   0x0000007c   Code   RO          317    .text.MX_ADC1_Init  lto-llvm-af9222.o
    0x0800623c   0x0800623c   0x0000007c   Code   RO          319    .text.MX_ADC3_Init  lto-llvm-af9222.o
    0x080062b8   0x080062b8   0x00000046   Code   RO          333    .text.MX_CAN1_Init  lto-llvm-af9222.o
    0x080062fe   0x080062fe   0x00000002   PAD
    0x08006300   0x08006300   0x00000046   Code   RO          335    .text.MX_CAN2_Init  lto-llvm-af9222.o
    0x08006346   0x08006346   0x00000002   PAD
    0x08006348   0x08006348   0x00000076   Code   RO          331    .text.MX_DMA_Init   lto-llvm-af9222.o
    0x080063be   0x080063be   0x00000002   PAD
    0x080063c0   0x080063c0   0x00000238   Code   RO          259    .text.MX_GPIO_Init  lto-llvm-af9222.o
    0x080065f8   0x080065f8   0x00000042   Code   RO          339    .text.MX_I2C3_Init  lto-llvm-af9222.o
    0x0800663a   0x0800663a   0x00000002   PAD
    0x0800663c   0x0800663c   0x0000002e   Code   RO          349    .text.MX_IWDG_Init  lto-llvm-af9222.o
    0x0800666a   0x0800666a   0x00000002   PAD
    0x0800666c   0x0800666c   0x0000004c   Code   RO          343    .text.MX_SPI1_Init  lto-llvm-af9222.o
    0x080066b8   0x080066b8   0x00000048   Code   RO          345    .text.MX_SPI2_Init  lto-llvm-af9222.o
    0x08006700   0x08006700   0x00000036   Code   RO          271    .text.MX_TIM10_Init  lto-llvm-af9222.o
    0x08006736   0x08006736   0x00000002   PAD
    0x08006738   0x08006738   0x00000176   Code   RO          261    .text.MX_TIM1_Init  lto-llvm-af9222.o
    0x080068ae   0x080068ae   0x00000002   PAD
    0x080068b0   0x080068b0   0x000000d6   Code   RO          265    .text.MX_TIM4_Init  lto-llvm-af9222.o
    0x08006986   0x08006986   0x00000002   PAD
    0x08006988   0x08006988   0x00000110   Code   RO          267    .text.MX_TIM5_Init  lto-llvm-af9222.o
    0x08006a98   0x08006a98   0x00000154   Code   RO          269    .text.MX_TIM8_Init  lto-llvm-af9222.o
    0x08006bec   0x08006bec   0x0000003a   Code   RO          323    .text.MX_USART1_UART_Init  lto-llvm-af9222.o
    0x08006c26   0x08006c26   0x00000002   PAD
    0x08006c28   0x08006c28   0x0000003e   Code   RO          325    .text.MX_USART3_UART_Init  lto-llvm-af9222.o
    0x08006c66   0x08006c66   0x00000002   PAD
    0x08006c68   0x08006c68   0x0000003a   Code   RO          327    .text.MX_USART6_UART_Init  lto-llvm-af9222.o
    0x08006ca2   0x08006ca2   0x00000002   PAD
    0x08006ca4   0x08006ca4   0x00000034   Code   RO          351    .text.MX_USB_DEVICE_Init  lto-llvm-af9222.o
    0x08006cd8   0x08006cd8   0x00000004   Code   RO          279    .text.MemManage_Handler  lto-llvm-af9222.o
    0x08006cdc   0x08006cdc   0x00000002   Code   RO          275    .text.NMI_Handler   lto-llvm-af9222.o
    0x08006cde   0x08006cde   0x00000002   PAD
    0x08006ce0   0x08006ce0   0x00000062   Code   RO          519    .text.NVIC_EncodePriority  lto-llvm-af9222.o
    0x08006d42   0x08006d42   0x00000002   PAD
    0x08006d44   0x08006d44   0x00000008   Code   RO          309    .text.OTG_FS_IRQHandler  lto-llvm-af9222.o
    0x08006d4c   0x08006d4c   0x000000c4   Code   RO          631    .text.PCD_EP_OutSetupPacket_int  lto-llvm-af9222.o
    0x08006e10   0x08006e10   0x000001da   Code   RO          629    .text.PCD_EP_OutXfrComplete_int  lto-llvm-af9222.o
    0x08006fea   0x08006fea   0x00000002   PAD
    0x08006fec   0x08006fec   0x00000128   Code   RO          633    .text.PCD_WriteEmptyTxFifo  lto-llvm-af9222.o
    0x08007114   0x08007114   0x00000002   Code   RO          289    .text.PendSV_Handler  lto-llvm-af9222.o
    0x08007116   0x08007116   0x00000002   PAD
    0x08007118   0x08007118   0x00000002   Code   RO          285    .text.SVC_Handler   lto-llvm-af9222.o
    0x0800711a   0x0800711a   0x00000002   PAD
    0x0800711c   0x0800711c   0x00000052   Code   RO          529    .text.SysTick_Config  lto-llvm-af9222.o
    0x0800716e   0x0800716e   0x00000002   PAD
    0x08007170   0x08007170   0x00000008   Code   RO          291    .text.SysTick_Handler  lto-llvm-af9222.o
    0x08007178   0x08007178   0x000000be   Code   RO          255    .text.SystemClock_Config  lto-llvm-af9222.o
    0x08007236   0x08007236   0x00000002   PAD
    0x08007238   0x08007238   0x0000006e   Code   RO          717    .text.SystemInit    lto-llvm-af9222.o
    0x080072a6   0x080072a6   0x00000002   PAD
    0x080072a8   0x080072a8   0x0000001c   Code   RO          301    .text.TIM1_UP_TIM10_IRQHandler  lto-llvm-af9222.o
    0x080072c4   0x080072c4   0x0000019a   Code   RO          429    .text.TIM_Base_SetConfig  lto-llvm-af9222.o
    0x0800745e   0x0800745e   0x00000002   PAD
    0x08007460   0x08007460   0x00000038   Code   RO          433    .text.TIM_CCxChannelCmd  lto-llvm-af9222.o
    0x08007498   0x08007498   0x00000034   Code   RO          463    .text.TIM_ETR_SetConfig  lto-llvm-af9222.o
    0x080074cc   0x080074cc   0x0000002a   Code   RO          469    .text.TIM_ITRx_SetConfig  lto-llvm-af9222.o
    0x080074f6   0x080074f6   0x00000002   PAD
    0x080074f8   0x080074f8   0x000000ea   Code   RO          453    .text.TIM_OC1_SetConfig  lto-llvm-af9222.o
    0x080075e2   0x080075e2   0x00000002   PAD
    0x080075e4   0x080075e4   0x000000f4   Code   RO          455    .text.TIM_OC2_SetConfig  lto-llvm-af9222.o
    0x080076d8   0x080076d8   0x000000f2   Code   RO          457    .text.TIM_OC3_SetConfig  lto-llvm-af9222.o
    0x080077ca   0x080077ca   0x00000002   PAD
    0x080077cc   0x080077cc   0x000000a4   Code   RO          459    .text.TIM_OC4_SetConfig  lto-llvm-af9222.o
    0x08007870   0x08007870   0x00000050   Code   RO          467    .text.TIM_TI1_ConfigInputStage  lto-llvm-af9222.o
    0x080078c0   0x080078c0   0x00000052   Code   RO          471    .text.TIM_TI2_ConfigInputStage  lto-llvm-af9222.o
    0x08007912   0x08007912   0x00000002   PAD
    0x08007914   0x08007914   0x00000020   Code   RO          571    .text.UART_DMAAbortOnError  lto-llvm-af9222.o
    0x08007934   0x08007934   0x00000028   Code   RO          559    .text.UART_EndRxTransfer  lto-llvm-af9222.o
    0x0800795c   0x0800795c   0x00000024   Code   RO          575    .text.UART_EndTransmit_IT  lto-llvm-af9222.o
    0x08007980   0x08007980   0x000000ea   Code   RO          569    .text.UART_Receive_IT  lto-llvm-af9222.o
    0x08007a6a   0x08007a6a   0x00000002   PAD
    0x08007a6c   0x08007a6c   0x000001ee   Code   RO          557    .text.UART_SetConfig  lto-llvm-af9222.o
    0x08007c5a   0x08007c5a   0x00000002   PAD
    0x08007c5c   0x08007c5c   0x0000009c   Code   RO          573    .text.UART_Transmit_IT  lto-llvm-af9222.o
    0x08007cf8   0x08007cf8   0x00000010   Code   RO          303    .text.USART1_IRQHandler  lto-llvm-af9222.o
    0x08007d08   0x08007d08   0x00000008   Code   RO          911    .text.USART3_IRQHandler  lto-llvm-af9222.o
    0x08007d10   0x08007d10   0x00000010   Code   RO          313    .text.USART6_IRQHandler  lto-llvm-af9222.o
    0x08007d20   0x08007d20   0x000000a4   Code   RO          803    .text.USBD_CDC_DataIn  lto-llvm-af9222.o
    0x08007dc4   0x08007dc4   0x00000058   Code   RO          805    .text.USBD_CDC_DataOut  lto-llvm-af9222.o
    0x08007e1c   0x08007e1c   0x00000066   Code   RO          797    .text.USBD_CDC_DeInit  lto-llvm-af9222.o
    0x08007e82   0x08007e82   0x00000002   PAD
    0x08007e84   0x08007e84   0x00000048   Code   RO          801    .text.USBD_CDC_EP0_RxReady  lto-llvm-af9222.o
    0x08007ecc   0x08007ecc   0x00000016   Code   RO          813    .text.USBD_CDC_GetDeviceQualifierDescriptor  lto-llvm-af9222.o
    0x08007ee2   0x08007ee2   0x00000002   PAD
    0x08007ee4   0x08007ee4   0x00000016   Code   RO          809    .text.USBD_CDC_GetFSCfgDesc  lto-llvm-af9222.o
    0x08007efa   0x08007efa   0x00000002   PAD
    0x08007efc   0x08007efc   0x00000016   Code   RO          807    .text.USBD_CDC_GetHSCfgDesc  lto-llvm-af9222.o
    0x08007f12   0x08007f12   0x00000002   PAD
    0x08007f14   0x08007f14   0x00000016   Code   RO          811    .text.USBD_CDC_GetOtherSpeedCfgDesc  lto-llvm-af9222.o
    0x08007f2a   0x08007f2a   0x00000002   PAD
    0x08007f2c   0x08007f2c   0x000000f2   Code   RO          795    .text.USBD_CDC_Init  lto-llvm-af9222.o
    0x0800801e   0x0800801e   0x00000002   PAD
    0x08008020   0x08008020   0x00000062   Code   RO          821    .text.USBD_CDC_ReceivePacket  lto-llvm-af9222.o
    0x08008082   0x08008082   0x00000002   PAD
    0x08008084   0x08008084   0x0000003a   Code   RO          815    .text.USBD_CDC_RegisterInterface  lto-llvm-af9222.o
    0x080080be   0x080080be   0x00000002   PAD
    0x080080c0   0x080080c0   0x00000022   Code   RO          819    .text.USBD_CDC_SetRxBuffer  lto-llvm-af9222.o
    0x080080e2   0x080080e2   0x00000002   PAD
    0x080080e4   0x080080e4   0x0000003a   Code   RO          817    .text.USBD_CDC_SetTxBuffer  lto-llvm-af9222.o
    0x0800811e   0x0800811e   0x00000002   PAD
    0x08008120   0x08008120   0x00000150   Code   RO          799    .text.USBD_CDC_Setup  lto-llvm-af9222.o
    0x08008270   0x08008270   0x0000001c   Code   RO          729    .text.USBD_ClrClassConfig  lto-llvm-af9222.o
    0x0800828c   0x0800828c   0x00000040   Code   RO          769    .text.USBD_ClrFeature  lto-llvm-af9222.o
    0x080082cc   0x080082cc   0x0000001e   Code   RO          789    .text.USBD_CtlContinueRx  lto-llvm-af9222.o
    0x080082ea   0x080082ea   0x00000002   PAD
    0x080082ec   0x080082ec   0x0000001e   Code   RO          785    .text.USBD_CtlContinueSendData  lto-llvm-af9222.o
    0x0800830a   0x0800830a   0x00000002   PAD
    0x0800830c   0x0800830c   0x0000001c   Code   RO          771    .text.USBD_CtlError  lto-llvm-af9222.o
    0x08008328   0x08008328   0x0000003a   Code   RO          787    .text.USBD_CtlPrepareRx  lto-llvm-af9222.o
    0x08008362   0x08008362   0x00000002   PAD
    0x08008364   0x08008364   0x0000001e   Code   RO          793    .text.USBD_CtlReceiveStatus  lto-llvm-af9222.o
    0x08008382   0x08008382   0x00000002   PAD
    0x08008384   0x08008384   0x00000036   Code   RO          783    .text.USBD_CtlSendData  lto-llvm-af9222.o
    0x080083ba   0x080083ba   0x00000002   PAD
    0x080083bc   0x080083bc   0x0000001e   Code   RO          791    .text.USBD_CtlSendStatus  lto-llvm-af9222.o
    0x080083da   0x080083da   0x00000002   PAD
    0x080083dc   0x080083dc   0x0000003e   Code   RO          419    .text.USBD_FS_ConfigStrDescriptor  lto-llvm-af9222.o
    0x0800841a   0x0800841a   0x00000002   PAD
    0x0800841c   0x0800841c   0x0000001a   Code   RO          409    .text.USBD_FS_DeviceDescriptor  lto-llvm-af9222.o
    0x08008436   0x08008436   0x00000002   PAD
    0x08008438   0x08008438   0x0000003e   Code   RO          421    .text.USBD_FS_InterfaceStrDescriptor  lto-llvm-af9222.o
    0x08008476   0x08008476   0x00000002   PAD
    0x08008478   0x08008478   0x0000001a   Code   RO          411    .text.USBD_FS_LangIDStrDescriptor  lto-llvm-af9222.o
    0x08008492   0x08008492   0x00000002   PAD
    0x08008494   0x08008494   0x00000024   Code   RO          413    .text.USBD_FS_ManufacturerStrDescriptor  lto-llvm-af9222.o
    0x080084b8   0x080084b8   0x0000003e   Code   RO          415    .text.USBD_FS_ProductStrDescriptor  lto-llvm-af9222.o
    0x080084f6   0x080084f6   0x00000002   PAD
    0x080084f8   0x080084f8   0x00000020   Code   RO          417    .text.USBD_FS_SerialStrDescriptor  lto-llvm-af9222.o
    0x08008518   0x08008518   0x00000060   Code   RO          763    .text.USBD_GetConfig  lto-llvm-af9222.o
    0x08008578   0x08008578   0x000001ac   Code   RO          757    .text.USBD_GetDescriptor  lto-llvm-af9222.o
    0x08008724   0x08008724   0x0000002e   Code   RO          781    .text.USBD_GetLen   lto-llvm-af9222.o
    0x08008752   0x08008752   0x00000002   PAD
    0x08008754   0x08008754   0x00000062   Code   RO          765    .text.USBD_GetStatus  lto-llvm-af9222.o
    0x080087b6   0x080087b6   0x00000002   PAD
    0x080087b8   0x080087b8   0x00000088   Code   RO          779    .text.USBD_GetString  lto-llvm-af9222.o
    0x08008840   0x08008840   0x0000004c   Code   RO          387    .text.USBD_Get_USB_Status  lto-llvm-af9222.o
    0x0800888c   0x0800888c   0x00000076   Code   RO          719    .text.USBD_Init     lto-llvm-af9222.o
    0x08008902   0x08008902   0x00000002   PAD
    0x08008904   0x08008904   0x00000036   Code   RO          397    .text.USBD_LL_ClearStallEP  lto-llvm-af9222.o
    0x0800893a   0x0800893a   0x00000002   PAD
    0x0800893c   0x0800893c   0x00000036   Code   RO          393    .text.USBD_LL_CloseEP  lto-llvm-af9222.o
    0x08008972   0x08008972   0x00000002   PAD
    0x08008974   0x08008974   0x0000015e   Code   RO          735    .text.USBD_LL_DataInStage  lto-llvm-af9222.o
    0x08008ad2   0x08008ad2   0x00000002   PAD
    0x08008ad4   0x08008ad4   0x000000f2   Code   RO          733    .text.USBD_LL_DataOutStage  lto-llvm-af9222.o
    0x08008bc6   0x08008bc6   0x00000002   PAD
    0x08008bc8   0x08008bc8   0x00000008   Code   RO          751    .text.USBD_LL_DevConnected  lto-llvm-af9222.o
    0x08008bd0   0x08008bd0   0x0000001e   Code   RO          753    .text.USBD_LL_DevDisconnected  lto-llvm-af9222.o
    0x08008bee   0x08008bee   0x00000002   PAD
    0x08008bf0   0x08008bf0   0x0000001c   Code   RO          407    .text.USBD_LL_GetRxDataSize  lto-llvm-af9222.o
    0x08008c0c   0x08008c0c   0x00000068   Code   RO          385    .text.USBD_LL_Init  lto-llvm-af9222.o
    0x08008c74   0x08008c74   0x0000005c   Code   RO          399    .text.USBD_LL_IsStallEP  lto-llvm-af9222.o
    0x08008cd0   0x08008cd0   0x0000000c   Code   RO          747    .text.USBD_LL_IsoINIncomplete  lto-llvm-af9222.o
    0x08008cdc   0x08008cdc   0x0000000c   Code   RO          749    .text.USBD_LL_IsoOUTIncomplete  lto-llvm-af9222.o
    0x08008ce8   0x08008ce8   0x00000046   Code   RO          391    .text.USBD_LL_OpenEP  lto-llvm-af9222.o
    0x08008d2e   0x08008d2e   0x00000002   PAD
    0x08008d30   0x08008d30   0x00000042   Code   RO          405    .text.USBD_LL_PrepareReceive  lto-llvm-af9222.o
    0x08008d72   0x08008d72   0x00000002   PAD
    0x08008d74   0x08008d74   0x0000006a   Code   RO          737    .text.USBD_LL_Reset  lto-llvm-af9222.o
    0x08008dde   0x08008dde   0x00000002   PAD
    0x08008de0   0x08008de0   0x00000012   Code   RO          743    .text.USBD_LL_Resume  lto-llvm-af9222.o
    0x08008df2   0x08008df2   0x00000002   PAD
    0x08008df4   0x08008df4   0x00000030   Code   RO          745    .text.USBD_LL_SOF   lto-llvm-af9222.o
    0x08008e24   0x08008e24   0x00000014   Code   RO          739    .text.USBD_LL_SetSpeed  lto-llvm-af9222.o
    0x08008e38   0x08008e38   0x00000036   Code   RO          401    .text.USBD_LL_SetUSBAddress  lto-llvm-af9222.o
    0x08008e6e   0x08008e6e   0x00000002   PAD
    0x08008e70   0x08008e70   0x00000078   Code   RO          731    .text.USBD_LL_SetupStage  lto-llvm-af9222.o
    0x08008ee8   0x08008ee8   0x00000036   Code   RO          395    .text.USBD_LL_StallEP  lto-llvm-af9222.o
    0x08008f1e   0x08008f1e   0x00000002   PAD
    0x08008f20   0x08008f20   0x0000002e   Code   RO          389    .text.USBD_LL_Start  lto-llvm-af9222.o
    0x08008f4e   0x08008f4e   0x00000002   PAD
    0x08008f50   0x08008f50   0x0000001a   Code   RO          741    .text.USBD_LL_Suspend  lto-llvm-af9222.o
    0x08008f6a   0x08008f6a   0x00000002   PAD
    0x08008f6c   0x08008f6c   0x00000042   Code   RO          403    .text.USBD_LL_Transmit  lto-llvm-af9222.o
    0x08008fae   0x08008fae   0x00000002   PAD
    0x08008fb0   0x08008fb0   0x00000044   Code   RO          777    .text.USBD_ParseSetupRequest  lto-llvm-af9222.o
    0x08008ff4   0x08008ff4   0x00000042   Code   RO          721    .text.USBD_RegisterClass  lto-llvm-af9222.o
    0x08009036   0x08009036   0x00000002   PAD
    0x08009038   0x08009038   0x00000008   Code   RO          725    .text.USBD_RunTestMode  lto-llvm-af9222.o
    0x08009040   0x08009040   0x0000008c   Code   RO          759    .text.USBD_SetAddress  lto-llvm-af9222.o
    0x080090cc   0x080090cc   0x0000003e   Code   RO          727    .text.USBD_SetClassConfig  lto-llvm-af9222.o
    0x0800910a   0x0800910a   0x00000002   PAD
    0x0800910c   0x0800910c   0x00000132   Code   RO          761    .text.USBD_SetConfig  lto-llvm-af9222.o
    0x0800923e   0x0800923e   0x00000002   PAD
    0x08009240   0x08009240   0x00000026   Code   RO          767    .text.USBD_SetFeature  lto-llvm-af9222.o
    0x08009266   0x08009266   0x00000002   PAD
    0x08009268   0x08009268   0x00000018   Code   RO          723    .text.USBD_Start    lto-llvm-af9222.o
    0x08009280   0x08009280   0x000000aa   Code   RO          755    .text.USBD_StdDevReq  lto-llvm-af9222.o
    0x0800932a   0x0800932a   0x00000002   PAD
    0x0800932c   0x0800932c   0x00000304   Code   RO          775    .text.USBD_StdEPReq  lto-llvm-af9222.o
    0x08009630   0x08009630   0x0000008e   Code   RO          773    .text.USBD_StdItfReq  lto-llvm-af9222.o
    0x080096be   0x080096be   0x00000002   PAD
    0x080096c0   0x080096c0   0x000000dc   Code   RO          679    .text.USB_ActivateEndpoint  lto-llvm-af9222.o
    0x0800979c   0x0800979c   0x0000004a   Code   RO          713    .text.USB_ActivateSetup  lto-llvm-af9222.o
    0x080097e6   0x080097e6   0x00000002   PAD
    0x080097e8   0x080097e8   0x000000f6   Code   RO          657    .text.USB_CoreInit  lto-llvm-af9222.o
    0x080098de   0x080098de   0x00000002   PAD
    0x080098e0   0x080098e0   0x0000007e   Code   RO          659    .text.USB_CoreReset  lto-llvm-af9222.o
    0x0800995e   0x0800995e   0x00000002   PAD
    0x08009960   0x08009960   0x000000c2   Code   RO          681    .text.USB_DeactivateEndpoint  lto-llvm-af9222.o
    0x08009a22   0x08009a22   0x00000002   PAD
    0x08009a24   0x08009a24   0x00000022   Code   RO          697    .text.USB_DevConnect  lto-llvm-af9222.o
    0x08009a46   0x08009a46   0x00000002   PAD
    0x08009a48   0x08009a48   0x00000022   Code   RO          699    .text.USB_DevDisconnect  lto-llvm-af9222.o
    0x08009a6a   0x08009a6a   0x00000002   PAD
    0x08009a6c   0x08009a6c   0x000002d6   Code   RO          669    .text.USB_DevInit   lto-llvm-af9222.o
    0x08009d42   0x08009d42   0x00000002   PAD
    0x08009d44   0x08009d44   0x00000012   Code   RO          665    .text.USB_DisableGlobalInt  lto-llvm-af9222.o
    0x08009d56   0x08009d56   0x00000002   PAD
    0x08009d58   0x08009d58   0x000001ee   Code   RO          687    .text.USB_EP0StartXfer  lto-llvm-af9222.o
    0x08009f46   0x08009f46   0x00000002   PAD
    0x08009f48   0x08009f48   0x0000009a   Code   RO          715    .text.USB_EP0_OutStart  lto-llvm-af9222.o
    0x08009fe2   0x08009fe2   0x00000002   PAD
    0x08009fe4   0x08009fe4   0x0000009e   Code   RO          693    .text.USB_EPClearStall  lto-llvm-af9222.o
    0x0800a082   0x0800a082   0x00000002   PAD
    0x0800a084   0x0800a084   0x000000a6   Code   RO          691    .text.USB_EPSetStall  lto-llvm-af9222.o
    0x0800a12a   0x0800a12a   0x00000002   PAD
    0x0800a12c   0x0800a12c   0x0000035e   Code   RO          683    .text.USB_EPStartXfer  lto-llvm-af9222.o
    0x0800a48a   0x0800a48a   0x00000002   PAD
    0x0800a48c   0x0800a48c   0x00000012   Code   RO          663    .text.USB_EnableGlobalInt  lto-llvm-af9222.o
    0x0800a49e   0x0800a49e   0x00000002   PAD
    0x0800a4a0   0x0800a4a0   0x0000004c   Code   RO          675    .text.USB_FlushRxFifo  lto-llvm-af9222.o
    0x0800a4ec   0x0800a4ec   0x00000054   Code   RO          673    .text.USB_FlushTxFifo  lto-llvm-af9222.o
    0x0800a540   0x0800a540   0x0000004c   Code   RO          677    .text.USB_GetDevSpeed  lto-llvm-af9222.o
    0x0800a58c   0x0800a58c   0x00000010   Code   RO          711    .text.USB_GetMode   lto-llvm-af9222.o
    0x0800a59c   0x0800a59c   0x00000024   Code   RO          705    .text.USB_ReadDevAllInEpInterrupt  lto-llvm-af9222.o
    0x0800a5c0   0x0800a5c0   0x00000024   Code   RO          703    .text.USB_ReadDevAllOutEpInterrupt  lto-llvm-af9222.o
    0x0800a5e4   0x0800a5e4   0x0000004e   Code   RO          709    .text.USB_ReadDevInEPInterrupt  lto-llvm-af9222.o
    0x0800a632   0x0800a632   0x00000002   PAD
    0x0800a634   0x0800a634   0x0000002e   Code   RO          707    .text.USB_ReadDevOutEPInterrupt  lto-llvm-af9222.o
    0x0800a662   0x0800a662   0x00000002   PAD
    0x0800a664   0x0800a664   0x0000001a   Code   RO          701    .text.USB_ReadInterrupts  lto-llvm-af9222.o
    0x0800a67e   0x0800a67e   0x00000002   PAD
    0x0800a680   0x0800a680   0x0000004c   Code   RO          689    .text.USB_ReadPacket  lto-llvm-af9222.o
    0x0800a6cc   0x0800a6cc   0x0000005c   Code   RO          667    .text.USB_SetCurrentMode  lto-llvm-af9222.o
    0x0800a728   0x0800a728   0x00000034   Code   RO          695    .text.USB_SetDevAddress  lto-llvm-af9222.o
    0x0800a75c   0x0800a75c   0x00000020   Code   RO          671    .text.USB_SetDevSpeed  lto-llvm-af9222.o
    0x0800a77c   0x0800a77c   0x000001b8   Code   RO          661    .text.USB_SetTurnaroundTime  lto-llvm-af9222.o
    0x0800a934   0x0800a934   0x0000006a   Code   RO          685    .text.USB_WritePacket  lto-llvm-af9222.o
    0x0800a99e   0x0800a99e   0x00000002   PAD
    0x0800a9a0   0x0800a9a0   0x00000004   Code   RO          283    .text.UsageFault_Handler  lto-llvm-af9222.o
    0x0800a9a4   0x0800a9a4   0x00000016   Code   RO          823    .text._GLOBAL__sub_I_ChassisTask.cpp  lto-llvm-af9222.o
    0x0800a9ba   0x0800a9ba   0x00000002   PAD
    0x0800a9bc   0x0800a9bc   0x0000000e   Code   RO          841    .text._GLOBAL__sub_I_UserTask.cpp  lto-llvm-af9222.o
    0x0800a9ca   0x0800a9ca   0x00000002   PAD
    0x0800a9cc   0x0800a9cc   0x00000094   Code   RO          839    .text._Z10CtrlHandlev  lto-llvm-af9222.o
    0x0800aa60   0x0800aa60   0x0000001c   Code   RO          851    .text._Z10UserHandlev  lto-llvm-af9222.o
    0x0800aa7c   0x0800aa7c   0x00000034   Code   RO          837    .text._Z11ChassisStopv  lto-llvm-af9222.o
    0x0800aab0   0x0800aab0   0x00000036   Code   RO          835    .text._Z13ChassisHandlev  lto-llvm-af9222.o
    0x0800aae6   0x0800aae6   0x00000002   PAD
    0x0800aae8   0x0800aae8   0x0000006a   Code   RO          853    .text._Z13aRGB_led_showj  lto-llvm-af9222.o
    0x0800ab52   0x0800ab52   0x00000002   PAD
    0x0800ab54   0x0800ab54   0x00000022   Code   RO          859    .text._Z14bsp_flash_readP12flash_data_t  lto-llvm-af9222.o
    0x0800ab76   0x0800ab76   0x00000002   PAD
    0x0800ab78   0x0800ab78   0x00000174   Code   RO          855    .text._Z15aRGB_led_changej  lto-llvm-af9222.o
    0x0800acec   0x0800acec   0x000001b8   Code   RO          857    .text._Z15bsp_ADC_vccMoniv  lto-llvm-af9222.o
    0x0800aea4   0x0800aea4   0x00000018   Code   RO          875    .text._Z4log2B6v16000IjENSt3__29enable_ifIXsr3std11is_integralIT_EE5valueEdE4typeES2_  lto-llvm-af9222.o
    0x0800aebc   0x0800aebc   0x00000014   Code   RO          847    .text._Z8UserStopv  lto-llvm-af9222.o
    0x0800aed0   0x0800aed0   0x0000013c   Code   RO          907    .text._ZN13RemoteControl10sbus_to_rcEPVKh  lto-llvm-af9222.o
    0x0800b00c   0x0800b00c   0x000000a2   Code   RO          905    .text._ZN13RemoteControl4initEv  lto-llvm-af9222.o
    0x0800b0ae   0x0800b0ae   0x00000002   PAD
    0x0800b0b0   0x0800b0b0   0x00000174   Code   RO          909    .text._ZN13RemoteControl8ITHandleEv  lto-llvm-af9222.o
    0x0800b224   0x0800b224   0x0000022c   Code   RO          877    .text._ZN3PID7PIDCalcEff  lto-llvm-af9222.o
    0x0800b450   0x0800b450   0x00000008   Code   RO          869    .text._ZN5Motor11ErrorHandleEv  lto-llvm-af9222.o
    0x0800b458   0x0800b458   0x0000006e   Code   RO          873    .text._ZN5Motor13IntensityCalcEv  lto-llvm-af9222.o
    0x0800b4c6   0x0800b4c6   0x00000002   PAD
    0x0800b4c8   0x0800b4c8   0x0000016c   Code   RO          881    .text._ZN5Motor14CANPackageSendEv  lto-llvm-af9222.o
    0x0800b634   0x0800b634   0x000001f0   Code   RO          871    .text._ZN5Motor16MotorStateUpdateEv  lto-llvm-af9222.o
    0x0800b824   0x0800b824   0x0000005a   Code   RO          879    .text._ZN5Motor4InitEv  lto-llvm-af9222.o
    0x0800b87e   0x0800b87e   0x00000002   PAD
    0x0800b880   0x0800b880   0x0000000e   Code   RO          891    .text._ZN5Motor4StopEv  lto-llvm-af9222.o
    0x0800b88e   0x0800b88e   0x00000002   PAD
    0x0800b890   0x0800b890   0x00000062   Code   RO          867    .text._ZN5Motor6HandleEv  lto-llvm-af9222.o
    0x0800b8f2   0x0800b8f2   0x00000002   PAD
    0x0800b8f4   0x0800b8f4   0x000000b4   Code   RO          889    .text._ZN5Motor9IT_HandleEP19__CAN_HandleTypeDef  lto-llvm-af9222.o
    0x0800b9a8   0x0800b9a8   0x000000c8   Code   RO          885    .text._ZN5MotorC2EjP12MOTOR_INIT_t  lto-llvm-af9222.o
    0x0800ba70   0x0800ba70   0x00000028   Code   RO          887    .text._ZN5MotorD2Ev  lto-llvm-af9222.o
    0x0800ba98   0x0800ba98   0x00000008   Code   RO          897    .text._ZN5Servo11ErrorHandleEv  lto-llvm-af9222.o
    0x0800baa0   0x0800baa0   0x00000088   Code   RO          903    .text._ZN5Servo14SetTargetAngleEf  lto-llvm-af9222.o
    0x0800bb28   0x0800bb28   0x00000048   Code   RO          901    .text._ZN5Servo4stopEv  lto-llvm-af9222.o
    0x0800bb70   0x0800bb70   0x000001bc   Code   RO          895    .text._ZN5Servo6HandleEv  lto-llvm-af9222.o
    0x0800bd2c   0x0800bd2c   0x00000004   PAD
    0x0800bd30   0x0800bd30   0x0000020c   Code   RO          899    .text._ZN5ServoC2EP12SERVO_INIT_T  lto-llvm-af9222.o
    0x0800bf3c   0x0800bf3c   0x00000016   Code   RO          883    .text._ZN6DeviceC2Ev  lto-llvm-af9222.o
    0x0800bf52   0x0800bf52   0x00000002   PAD
    0x0800bf54   0x0800bf54   0x00000032   Code   RO          525    .text.__NVIC_EnableIRQ  lto-llvm-af9222.o
    0x0800bf86   0x0800bf86   0x00000002   PAD
    0x0800bf88   0x0800bf88   0x00000010   Code   RO          517    .text.__NVIC_GetPriorityGrouping  lto-llvm-af9222.o
    0x0800bf98   0x0800bf98   0x00000042   Code   RO          521    .text.__NVIC_SetPriority  lto-llvm-af9222.o
    0x0800bfda   0x0800bfda   0x00000002   PAD
    0x0800bfdc   0x0800bfdc   0x0000003c   Code   RO          513    .text.__NVIC_SetPriorityGrouping  lto-llvm-af9222.o
    0x0800c018   0x0800c018   0x00000028   Code   RO           65    .text.__cxa_pure_virtual  libcppabi_w.l(cxa_virtual.cpp.o)
    0x0800c040   0x0800c040   0x00000034   Code   RO          825    .text.__cxx_global_var_init  lto-llvm-af9222.o
    0x0800c074   0x0800c074   0x00000034   Code   RO          827    .text.__cxx_global_var_init.1  lto-llvm-af9222.o
    0x0800c0a8   0x0800c0a8   0x00000014   Code   RO          845    .text.__cxx_global_var_init.1.275  lto-llvm-af9222.o
    0x0800c0bc   0x0800c0bc   0x00000034   Code   RO          829    .text.__cxx_global_var_init.2  lto-llvm-af9222.o
    0x0800c0f0   0x0800c0f0   0x00000034   Code   RO          843    .text.__cxx_global_var_init.274  lto-llvm-af9222.o
    0x0800c124   0x0800c124   0x00000034   Code   RO          831    .text.__cxx_global_var_init.3  lto-llvm-af9222.o
    0x0800c158   0x0800c158   0x00000004   Code   RO          136    .text.abort_message  libcppabi_w.l(abort_message.cpp.o)
    0x0800c15c   0x0800c15c   0x000000b2   Code   RO          865    .text.main          lto-llvm-af9222.o
    0x0800c20e   0x0800c20e   0x00000002   PAD
    0x0800c210   0x0800c210   0x000003c4   Code   RO          159    i.__hardfp_log      m_wm.l(log.o)
    0x0800c5d4   0x0800c5d4   0x00000004   PAD
    0x0800c5d8   0x0800c5d8   0x00000100   Code   RO           70    i.__hardfp_log2     m_wm.l(log2.o)
    0x0800c6d8   0x0800c6d8   0x000000f8   Code   RO          228    i.__kernel_poly     m_wm.l(poly.o)
    0x0800c7d0   0x0800c7d0   0x00000030   Code   RO          139    i.__mathlib_dbl_divzero  m_wm.l(dunder.o)
    0x0800c800   0x0800c800   0x00000014   Code   RO          140    i.__mathlib_dbl_infnan  m_wm.l(dunder.o)
    0x0800c814   0x0800c814   0x00000004   PAD
    0x0800c818   0x0800c818   0x00000020   Code   RO          142    i.__mathlib_dbl_invalid  m_wm.l(dunder.o)
    0x0800c838   0x0800c838   0x0000000e   Code   RO         1036    i.__scatterload_copy  mc_w.l(handlers.o)
    0x0800c846   0x0800c846   0x00000002   Code   RO         1037    i.__scatterload_null  mc_w.l(handlers.o)
    0x0800c848   0x0800c848   0x0000000e   Code   RO         1038    i.__scatterload_zeroinit  mc_w.l(handlers.o)
    0x0800c856   0x0800c856   0x00000002   PAD
    0x0800c858   0x0800c858   0x0000000c   Code   RO          206    i.__set_errno       mc_w.l(errno.o)
    0x0800c864   0x0800c864   0x00000050   Code   RO          105    i.free              mc_w.l(malloc.o)
    0x0800c8b4   0x0800c8b4   0x00000004   PAD
    0x0800c8b8   0x0800c8b8   0x0000008c   Code   RO          155    i.frexp             m_wm.l(frexp.o)
    0x0800c944   0x0800c944   0x00000010   Code   RO          161    i.log               m_wm.l(log.o)
    0x0800c954   0x0800c954   0x0000006c   Code   RO          106    i.malloc            mc_w.l(malloc.o)
    0x0800c9c0   0x0800c9c0   0x00000038   Data   RO          162    .constdata          m_wm.l(log.o)
    0x0800c9f8   0x0800c9f8   0x00000008   Data   RO          230    .constdata          m_wm.l(qnan.o)
    0x0800ca00   0x0800ca00   0x00000038   Data   RO          991    .rodata._ZL9servoInfo  lto-llvm-af9222.o
    0x0800ca38   0x0800ca38   0x00000010   Data   RO          985    .rodata._ZTV5Motor  lto-llvm-af9222.o
    0x0800ca48   0x0800ca48   0x00000010   Data   RO          990    .rodata._ZTV5Servo  lto-llvm-af9222.o
    0x0800ca58   0x0800ca58   0x00000010   Data   RO          992    .rodata._ZTV6Device  lto-llvm-af9222.o
    0x0800ca68   0x0800ca68   0x00000010   Data   RO          936    .rodata.cst16       lto-llvm-af9222.o
    0x0800ca78   0x0800ca78   0x00000010   Data   RO          932    .rodata.cst8        lto-llvm-af9222.o
    0x0800ca88   0x0800ca88   0x00000042   Data   RO          930    .rodata.str1.1      lto-llvm-af9222.o
    0x0800caca   0x0800caca   0x00000002   PAD
    0x0800cacc   0x0800cacc   0x00000020   Data   RO         1035    Region$$Table       anon$$obj.o
    0x0800caec   0x0800caec   0x00000008   Data   RO          943    .init_array         lto-llvm-af9222.o
    0x0800caf4   0x0800caec   0x00000000   Data   RO         1016    .init_array         mc_w.l(cpp_init.o)


    Execution Region RW_IRAM1 (Exec base: 0x20000000, Load base: 0x0800caf8, Size: 0x00003f40, Max: 0x00020000, ABSOLUTE, COMPRESSED[0x000000f0])

    Exec Addr    Load Addr    Size         Type   Attr      Idx    E Section Name        Object

    0x20000000   COMPRESSED   0x00000004   Data   RW          202    .data               mc_w.l(mvars.o)
    0x20000004   COMPRESSED   0x00000004   Data   RW          203    .data               mc_w.l(mvars.o)
    0x20000008   COMPRESSED   0x00000004   Data   RW          207    .data               mc_w.l(errno.o)
    0x2000000c   COMPRESSED   0x00000004   Data   RW          244    .data               mc_w.l(cpp_dtor.o)
    0x20000010   COMPRESSED   0x00000014   Data   RW          953    .data.Claw_Servo_Init  lto-llvm-af9222.o
    0x20000024   COMPRESSED   0x0000001c   Data   RW          926    .data.FS_Desc       lto-llvm-af9222.o
    0x20000040   COMPRESSED   0x00000004   Data   RW          935    .data.SystemCoreClock  lto-llvm-af9222.o
    0x20000044   COMPRESSED   0x00000038   Data   RW          938    .data.USBD_CDC      lto-llvm-af9222.o
    0x2000007c   COMPRESSED   0x00000043   Data   RW          940    .data.USBD_CDC_CfgFSDesc  lto-llvm-af9222.o
    0x200000bf   COMPRESSED   0x00000001   PAD
    0x200000c0   COMPRESSED   0x00000043   Data   RW          939    .data.USBD_CDC_CfgHSDesc  lto-llvm-af9222.o
    0x20000103   COMPRESSED   0x00000001   PAD
    0x20000104   COMPRESSED   0x0000000a   Data   RW          942    .data.USBD_CDC_DeviceQualifierDesc  lto-llvm-af9222.o
    0x2000010e   COMPRESSED   0x00000002   PAD
    0x20000110   COMPRESSED   0x00000043   Data   RW          941    .data.USBD_CDC_OtherSpeedCfgDesc  lto-llvm-af9222.o
    0x20000153   COMPRESSED   0x00000001   PAD
    0x20000154   COMPRESSED   0x00000012   Data   RW          927    .data.USBD_FS_DeviceDesc  lto-llvm-af9222.o
    0x20000166   COMPRESSED   0x00000002   PAD
    0x20000168   COMPRESSED   0x00000010   Data   RW          921    .data.USBD_Interface_fops_FS  lto-llvm-af9222.o
    0x20000178   COMPRESSED   0x00000004   Data   RW          928    .data.USBD_LangIDDesc  lto-llvm-af9222.o
    0x2000017c   COMPRESSED   0x0000001a   Data   RW          929    .data.USBD_StringSerial  lto-llvm-af9222.o
    0x20000196   COMPRESSED   0x00000002   PAD
    0x20000198   COMPRESSED   0x00000004   Data   RW          960    .data._ZZ15aRGB_led_changejE10aRGB_value  lto-llvm-af9222.o
    0x2000019c   COMPRESSED   0x00000014   Data   RW          945    .data.chassisMotorInit  lto-llvm-af9222.o
    0x200001b0   COMPRESSED   0x00000001   Data   RW          977    .data.key_raw_state  lto-llvm-af9222.o
    0x200001b1   COMPRESSED   0x00000003   PAD
    0x200001b4   COMPRESSED   0x00000048   Data   RW          944    .data.pidRegulator  lto-llvm-af9222.o
    0x200001fc   COMPRESSED   0x00000014   Data   RW          951    .data.userMotorInit  lto-llvm-af9222.o
    0x20000210   COMPRESSED   0x00000048   Data   RW          950    .data.userPidRegulator  lto-llvm-af9222.o
    0x20000258   COMPRESSED   0x00000004   Data   RW          933    .data.uwTickPrio    lto-llvm-af9222.o
    0x2000025c   COMPRESSED   0x00000004   PAD
    0x20000260        -       0x000000c8   Zero   RW          948    .bss.CMBL           lto-llvm-af9222.o
    0x20000328        -       0x000000c8   Zero   RW          949    .bss.CMBR           lto-llvm-af9222.o
    0x200003f0        -       0x000000c8   Zero   RW          946    .bss.CMFL           lto-llvm-af9222.o
    0x200004b8        -       0x000000c8   Zero   RW          947    .bss.CMFR           lto-llvm-af9222.o
    0x20000580        -       0x00000024   Zero   RW          954    .bss.ClawServo      lto-llvm-af9222.o
    0x200005a4        -       0x00000004   Zero   RW          917    .bss.HAL_RCC_CAN1_CLK_ENABLED  lto-llvm-af9222.o
    0x200005a8        -       0x00000001   Zero   RW          937    .bss.USBD_SetConfig.cfgidx  lto-llvm-af9222.o
    0x200005a9   COMPRESSED   0x00000003   PAD
    0x200005ac        -       0x00000200   Zero   RW          931    .bss.USBD_StrDesc   lto-llvm-af9222.o
    0x200007ac        -       0x000000c8   Zero   RW          952    .bss.UserMotor      lto-llvm-af9222.o
    0x20000874        -       0x00000800   Zero   RW          923    .bss.UserRxBufferFS  lto-llvm-af9222.o
    0x20001074        -       0x00000800   Zero   RW          924    .bss.UserTxBufferFS  lto-llvm-af9222.o
    0x20001874        -       0x00000048   Zero   RW         1002    .bss._ZN13RemoteControl11sbus_rx_bufE  lto-llvm-af9222.o
    0x200018bc        -       0x00000004   Zero   RW          993    .bss._ZN13RemoteControl6rcInfoE.0  lto-llvm-af9222.o
    0x200018c0        -       0x00000001   Zero   RW          994    .bss._ZN13RemoteControl6rcInfoE.4  lto-llvm-af9222.o
    0x200018c1   COMPRESSED   0x00000003   PAD
    0x200018c4        -       0x00000001   Zero   RW          995    .bss._ZN13RemoteControl6rcInfoE.5  lto-llvm-af9222.o
    0x200018c5   COMPRESSED   0x00000003   PAD
    0x200018c8        -       0x00000004   Zero   RW          996    .bss._ZN13RemoteControl7rc_ctrlE.0  lto-llvm-af9222.o
    0x200018cc        -       0x00000004   Zero   RW          997    .bss._ZN13RemoteControl7rc_ctrlE.1  lto-llvm-af9222.o
    0x200018d0        -       0x00000004   Zero   RW          998    .bss._ZN13RemoteControl7rc_ctrlE.2  lto-llvm-af9222.o
    0x200018d4        -       0x00000004   Zero   RW          999    .bss._ZN13RemoteControl7rc_ctrlE.3  lto-llvm-af9222.o
    0x200018d8        -       0x00000004   Zero   RW         1000    .bss._ZN13RemoteControl7rc_ctrlE.4  lto-llvm-af9222.o
    0x200018dc        -       0x00000004   Zero   RW         1001    .bss._ZN13RemoteControl7rc_ctrlE.5  lto-llvm-af9222.o
    0x200018e0        -       0x00000020   Zero   RW          981    .bss._ZN5Motor15motor_intensityE  lto-llvm-af9222.o
    0x20001900        -       0x00000040   Zero   RW          980    .bss._ZN5Motor9motorPtrsE  lto-llvm-af9222.o
    0x20001940        -       0x00000004   Zero   RW          982    .bss._ZN5Motor9motor_IDsE  lto-llvm-af9222.o
    0x20001944        -       0x00000004   Zero   RW          987    .bss._ZN5Servo9servo_IDsE  lto-llvm-af9222.o
    0x20001948        -       0x00000002   Zero   RW          956    .bss._ZZ13aRGB_led_showjE3red  lto-llvm-af9222.o
    0x2000194a        -       0x00000002   Zero   RW          958    .bss._ZZ13aRGB_led_showjE4blue  lto-llvm-af9222.o
    0x2000194c        -       0x00000001   Zero   RW          955    .bss._ZZ13aRGB_led_showjE5alpha  lto-llvm-af9222.o
    0x2000194d   COMPRESSED   0x00000001   PAD
    0x2000194e        -       0x00000002   Zero   RW          957    .bss._ZZ13aRGB_led_showjE5green  lto-llvm-af9222.o
    0x20001950        -       0x00000004   Zero   RW          961    .bss._ZZ15aRGB_led_changejE8lastTick  lto-llvm-af9222.o
    0x20001954        -       0x00000004   Zero   RW          962    .bss._ZZ15aRGB_led_changejE9lastPhase  lto-llvm-af9222.o
    0x20001958        -       0x00000004   Zero   RW          967    .bss._ZZ15bsp_ADC_vccMonivE14calibrationCnt  lto-llvm-af9222.o
    0x2000195c        -       0x00000001   Zero   RW          966    .bss._ZZ15bsp_ADC_vccMonivE15calibrationCplt  lto-llvm-af9222.o
    0x2000195d   COMPRESSED   0x00000003   PAD
    0x20001960        -       0x00000004   Zero   RW          968    .bss._ZZ15bsp_ADC_vccMonivE7vrefSum  lto-llvm-af9222.o
    0x20001964        -       0x00000004   Zero   RW          969    .bss._ZZ15bsp_ADC_vccMonivE9vrefValue  lto-llvm-af9222.o
    0x20001968        -       0x00000004   Zero   RW          976    .bss._ZZ29HAL_TIM_PeriodElapsedCallbackE3cnt  lto-llvm-af9222.o
    0x2000196c        -       0x00000002   Zero   RW         1005    .bss._ZZN13RemoteControl8ITHandleEvE16this_time_rx_len  lto-llvm-af9222.o
    0x2000196e   COMPRESSED   0x00000002   PAD
    0x20001970        -       0x00000004   Zero   RW          986    .bss._ZZN5Motor16MotorStateUpdateEvE8lastRead  lto-llvm-af9222.o
    0x20001974        -       0x00000200   Zero   RW          972    .bss.flashData      lto-llvm-af9222.o
    0x20001b74        -       0x0000029c   Zero   RW          922    .bss.hUsbDeviceFS   lto-llvm-af9222.o
    0x20001e10        -       0x00000048   Zero   RW          970    .bss.hadc1          lto-llvm-af9222.o
    0x20001e58        -       0x00000048   Zero   RW          971    .bss.hadc3          lto-llvm-af9222.o
    0x20001ea0        -       0x00000028   Zero   RW          983    .bss.hcan1          lto-llvm-af9222.o
    0x20001ec8        -       0x00000028   Zero   RW          984    .bss.hcan2          lto-llvm-af9222.o
    0x20001ef0        -       0x00000060   Zero   RW          916    .bss.hdma_usart1_rx  lto-llvm-af9222.o
    0x20001f50        -       0x00000060   Zero   RW          915    .bss.hdma_usart1_tx  lto-llvm-af9222.o
    0x20001fb0        -       0x00000060   Zero   RW         1004    .bss.hdma_usart3_rx  lto-llvm-af9222.o
    0x20002010        -       0x00000054   Zero   RW          918    .bss.hi2c3          lto-llvm-af9222.o
    0x20002064        -       0x0000000c   Zero   RW         1006    .bss.hiwdg          lto-llvm-af9222.o
    0x20002070        -       0x00000408   Zero   RW          925    .bss.hpcd_USB_OTG_FS  lto-llvm-af9222.o
    0x20002478        -       0x00000058   Zero   RW          919    .bss.hspi1          lto-llvm-af9222.o
    0x200024d0        -       0x00000058   Zero   RW          920    .bss.hspi2          lto-llvm-af9222.o
    0x20002528        -       0x00000040   Zero   RW          988    .bss.htim1          lto-llvm-af9222.o
    0x20002568        -       0x00000040   Zero   RW          975    .bss.htim10         lto-llvm-af9222.o
    0x200025a8        -       0x00000040   Zero   RW          963    .bss.htim4          lto-llvm-af9222.o
    0x200025e8        -       0x00000040   Zero   RW          959    .bss.htim5          lto-llvm-af9222.o
    0x20002628        -       0x00000040   Zero   RW          989    .bss.htim8          lto-llvm-af9222.o
    0x20002668        -       0x00000040   Zero   RW          913    .bss.huart1         lto-llvm-af9222.o
    0x200026a8        -       0x00000040   Zero   RW         1003    .bss.huart3         lto-llvm-af9222.o
    0x200026e8        -       0x00000040   Zero   RW          914    .bss.huart6         lto-llvm-af9222.o
    0x20002728        -       0x00000001   Zero   RW          973    .bss.init_Flag      lto-llvm-af9222.o
    0x20002729   COMPRESSED   0x00000003   PAD
    0x2000272c        -       0x00000004   Zero   RW          978    .bss.key_last_stamp  lto-llvm-af9222.o
    0x20002730        -       0x00000001   Zero   RW          974    .bss.period         lto-llvm-af9222.o
    0x20002731   COMPRESSED   0x00000003   PAD
    0x20002734        -       0x00000004   Zero   RW          934    .bss.uwTick         lto-llvm-af9222.o
    0x20002738        -       0x00000004   Zero   RW          965    .bss.vccBat         lto-llvm-af9222.o
    0x2000273c        -       0x00000004   Zero   RW          964    .bss.vccMoni        lto-llvm-af9222.o
    0x20002740        -       0x00001000   Zero   RW            2    HEAP                startup_stm32f407xx.o
    0x20003740        -       0x00000800   Zero   RW            1    STACK               startup_stm32f407xx.o


==============================================================================

Image component sizes


      Code (inc. data)   RO Data    RW Data    ZI Data      Debug   Object Name

     46974        162        210        576       9419     194579   lto-llvm-af9222.o
        36          8        392          0       6144        872   startup_stm32f407xx.o

    ----------------------------------------------------------------------
     47324        174        636        588      15588     195451   Object Totals
         0          0         32          0          0          0   (incl. Generated)
       314          4          2         12         25          0   (incl. Padding)

    ----------------------------------------------------------------------

      Code (inc. data)   RO Data    RW Data    ZI Data      Debug   Library Member Name

         4          0          0          0          0         36   abort_message.cpp.o
        40         32          0          0          0         52   cxa_virtual.cpp.o
       100         28          0          0          0        372   dunder.o
       140         22          0          0          0        132   frexp.o
       980         92         56          0          0        440   log.o
       256         36          0          0          0        164   log2.o
       248          0          0          0          0        152   poly.o
         0          0          8          0          0          0   qnan.o
        86          0          0          0          0          0   __dczerorl2.o
        46          0          0          0          0         84   aeabi_atexit.o
         8          4          0          4          0         68   cpp_dtor.o
         2          0          0          0          0         68   cpp_final.o
        32          8          0          0          0         80   cpp_init.o
        10          0          0          0          0         68   cxa_atexit.o
        66          0          0          0          0         84   cxa_finalize.o
         0          0          0          0          0          0   entry.o
         0          0          0          0          0          0   entry10a.o
         4          0          0          0          0          0   entry10b.o
         0          0          0          0          0          0   entry11a.o
         8          4          0          0          0          0   entry2.o
         4          0          0          0          0          0   entry5.o
         0          0          0          0          0          0   entry7b.o
         4          0          0          0          0          0   entry8a.o
         0          0          0          0          0          0   entry8b.o
         8          4          0          0          0          0   entry9a.o
        12          6          0          4          0         68   errno.o
        30          0          0          0          0          0   handlers.o
        36          8          0          0          0         68   init.o
         0          0          0          0          0          0   iusefp.o
        30          0          0          0          0         68   llshl.o
        36          0          0          0          0         68   llsshr.o
        32          0          0          0          0         68   llushr.o
       188         20          0          0          0        160   malloc.o
        36          0          0          0          0         68   memcpya.o
        36          0          0          0          0        108   memseta.o
         0          0          0          8          0          0   mvars.o
        98          0          0          0          0         92   uldiv.o
        48          0          0          0          0         68   cdcmple.o
        56          0          0          0          0         88   d2f.o
       334          0          0          0          0        148   dadd.o
       222          0          0          0          0        100   ddiv.o
       186          0          0          0          0        176   depilogue.o
        50          0          0          0          0         76   dfixui.o
        34          0          0          0          0         76   dflti.o
        26          0          0          0          0         76   dfltui.o
       228          0          0          0          0         96   dmul.o
        38          0          0          0          0         68   f2d.o
       110          0          0          0          0        168   fepilogue.o

    ----------------------------------------------------------------------
      3932        272         64         16          0       3708   Library Totals
        20          8          0          0          0          0   (incl. Padding)

    ----------------------------------------------------------------------

      Code (inc. data)   RO Data    RW Data    ZI Data      Debug   Library Name

        44         32          0          0          0         88   libcppabi_w.l
      1724        178         64          0          0       1260   m_wm.l
       812         54          0         16          0       1220   mc_w.l
      1332          0          0          0          0       1140   mf_w.l

    ----------------------------------------------------------------------
      3932        272         64         16          0       3708   Library Totals

    ----------------------------------------------------------------------

==============================================================================


      Code (inc. data)   RO Data    RW Data    ZI Data      Debug   

     51256        446        700        604      15588     197559   Grand Totals
     51256        446        700        240      15588     197559   ELF Image Totals (compressed)
     51256        446        700        240          0          0   ROM Totals

==============================================================================

    Total RO  Size (Code + RO Data)                51956 (  50.74kB)
    Total RW  Size (RW Data + ZI Data)             16192 (  15.81kB)
    Total ROM Size (Code + RO Data + RW Data)      52196 (  50.97kB)

==============================================================================

